	.file	"sqrt_128b.cpp"
	.text
.Ltext0:
	.section	.rodata
	.type	_ZStL19piecewise_construct, @object
	.size	_ZStL19piecewise_construct, 1
_ZStL19piecewise_construct:
	.zero	1
	.local	_ZStL8__ioinit
	.comm	_ZStL8__ioinit,1,1
	.section	.text._ZN5TimerC2ERKNSt7__cxx1112basic_stringIcSt11char_traitsIcESaIcEEE,"axG",@progbits,_ZN5TimerC5ERKNSt7__cxx1112basic_stringIcSt11char_traitsIcESaIcEEE,comdat
	.align 2
	.weak	_ZN5TimerC2ERKNSt7__cxx1112basic_stringIcSt11char_traitsIcESaIcEEE
	.type	_ZN5TimerC2ERKNSt7__cxx1112basic_stringIcSt11char_traitsIcESaIcEEE, @function
_ZN5TimerC2ERKNSt7__cxx1112basic_stringIcSt11char_traitsIcESaIcEEE:
.LFB2527:
	.file 1 "utils/Timer.hh"
	.loc 1 7 0
	.cfi_startproc
	pushq	%rbp
	.cfi_def_cfa_offset 16
	.cfi_offset 6, -16
	movq	%rsp, %rbp
	.cfi_def_cfa_register 6
	subq	$16, %rsp
	movq	%rdi, -8(%rbp)
	movq	%rsi, -16(%rbp)
.LBB7:
	.loc 1 9 0
	movq	-8(%rbp), %rax
	movq	-16(%rbp), %rdx
	movq	%rdx, %rsi
	movq	%rax, %rdi
	call	_ZNSt7__cxx1112basic_stringIcSt11char_traitsIcESaIcEEC1ERKS4_@PLT
	call	clock@PLT
	movq	%rax, %rdx
	movq	-8(%rbp), %rax
	movq	%rdx, 32(%rax)
.LBE7:
	.loc 1 11 0
	nop
	leave
	.cfi_def_cfa 7, 8
	ret
	.cfi_endproc
.LFE2527:
	.size	_ZN5TimerC2ERKNSt7__cxx1112basic_stringIcSt11char_traitsIcESaIcEEE, .-_ZN5TimerC2ERKNSt7__cxx1112basic_stringIcSt11char_traitsIcESaIcEEE
	.weak	_ZN5TimerC1ERKNSt7__cxx1112basic_stringIcSt11char_traitsIcESaIcEEE
	.set	_ZN5TimerC1ERKNSt7__cxx1112basic_stringIcSt11char_traitsIcESaIcEEE,_ZN5TimerC2ERKNSt7__cxx1112basic_stringIcSt11char_traitsIcESaIcEEE
	.section	.rodata
.LC1:
	.string	": "
.LC3:
	.string	"ms"
	.section	.text._ZN5TimerD2Ev,"axG",@progbits,_ZN5TimerD5Ev,comdat
	.align 2
	.weak	_ZN5TimerD2Ev
	.type	_ZN5TimerD2Ev, @function
_ZN5TimerD2Ev:
.LFB2530:
	.loc 1 12 0
	.cfi_startproc
	.cfi_personality 0x9b,DW.ref.__gxx_personality_v0
	.cfi_lsda 0x1b,.LLSDA2530
	pushq	%rbp
	.cfi_def_cfa_offset 16
	.cfi_offset 6, -16
	movq	%rsp, %rbp
	.cfi_def_cfa_register 6
	subq	$32, %rsp
	movq	%rdi, -24(%rbp)
.LBB8:
.LBB9:
	.loc 1 14 0
	call	clock@PLT
	movq	%rax, %rdx
	movq	-24(%rbp), %rax
	movq	32(%rax), %rax
	subq	%rax, %rdx
	movq	%rdx, %rax
	cvtsi2sdq	%rax, %xmm0
	movsd	.LC0(%rip), %xmm1
	divsd	%xmm1, %xmm0
	movsd	%xmm0, -8(%rbp)
	.loc 1 15 0
	movq	-24(%rbp), %rax
	movq	%rax, %rsi
	leaq	_ZSt4cout(%rip), %rdi
	call	_ZStlsIcSt11char_traitsIcESaIcEERSt13basic_ostreamIT_T0_ES7_RKNSt7__cxx1112basic_stringIS4_S5_T1_EE@PLT
	leaq	.LC1(%rip), %rsi
	movq	%rax, %rdi
	call	_ZStlsISt11char_traitsIcEERSt13basic_ostreamIcT_ES5_PKc@PLT
	movq	%rax, %rdx
	movsd	-8(%rbp), %xmm1
	movsd	.LC2(%rip), %xmm0
	mulsd	%xmm1, %xmm0
	cvttsd2si	%xmm0, %eax
	movl	%eax, %esi
	movq	%rdx, %rdi
	call	_ZNSolsEi@PLT
	leaq	.LC3(%rip), %rsi
	movq	%rax, %rdi
	call	_ZStlsISt11char_traitsIcEERSt13basic_ostreamIcT_ES5_PKc@PLT
	movq	%rax, %rdx
	movq	_ZSt4endlIcSt11char_traitsIcEERSt13basic_ostreamIT_T0_ES6_@GOTPCREL(%rip), %rax
	movq	%rax, %rsi
	movq	%rdx, %rdi
	call	_ZNSolsEPFRSoS_E@PLT
.LBE9:
	.loc 1 13 0
	movq	-24(%rbp), %rax
	movq	%rax, %rdi
	call	_ZNSt7__cxx1112basic_stringIcSt11char_traitsIcESaIcEED1Ev@PLT
.LBE8:
	.loc 1 16 0
	nop
	leave
	.cfi_def_cfa 7, 8
	ret
	.cfi_endproc
.LFE2530:
	.globl	__gxx_personality_v0
	.section	.gcc_except_table._ZN5TimerD2Ev,"aG",@progbits,_ZN5TimerD5Ev,comdat
.LLSDA2530:
	.byte	0xff
	.byte	0xff
	.byte	0x1
	.uleb128 .LLSDACSE2530-.LLSDACSB2530
.LLSDACSB2530:
.LLSDACSE2530:
	.section	.text._ZN5TimerD2Ev,"axG",@progbits,_ZN5TimerD5Ev,comdat
	.size	_ZN5TimerD2Ev, .-_ZN5TimerD2Ev
	.weak	_ZN5TimerD1Ev
	.set	_ZN5TimerD1Ev,_ZN5TimerD2Ev
	.text
	.globl	_Z5naivePfm
	.type	_Z5naivePfm, @function
_Z5naivePfm:
.LFB2532:
	.file 2 "intrinsic_functions/sqrt_128b.cpp"
	.loc 2 8 0
	.cfi_startproc
	pushq	%rbp
	.cfi_def_cfa_offset 16
	.cfi_offset 6, -16
	movq	%rsp, %rbp
	.cfi_def_cfa_register 6
	subq	$32, %rsp
	movq	%rdi, -24(%rbp)
	movq	%rsi, -32(%rbp)
.LBB10:
	.loc 2 9 0
	movl	$0, -4(%rbp)
.L5:
	.loc 2 9 0 is_stmt 0 discriminator 3
	movl	-4(%rbp), %eax
	cltq
	cmpq	%rax, -32(%rbp)
	jbe	.L6
	.loc 2 11 0 is_stmt 1 discriminator 2
	movl	-4(%rbp), %eax
	cltq
	leaq	0(,%rax,4), %rdx
	movq	-24(%rbp), %rax
	addq	%rdx, %rax
	movss	(%rax), %xmm0
	cvtss2sd	%xmm0, %xmm0
	call	sqrt@PLT
	movl	-4(%rbp), %eax
	cltq
	leaq	0(,%rax,4), %rdx
	movq	-24(%rbp), %rax
	addq	%rdx, %rax
	cvtsd2ss	%xmm0, %xmm0
	movss	%xmm0, (%rax)
	.loc 2 9 0 discriminator 2
	addl	$1, -4(%rbp)
	jmp	.L5
.L6:
.LBE10:
	.loc 2 13 0
	nop
	leave
	.cfi_def_cfa 7, 8
	ret
	.cfi_endproc
.LFE2532:
	.size	_Z5naivePfm, .-_Z5naivePfm
	.globl	_Z10vectorizedPfm
	.type	_Z10vectorizedPfm, @function
_Z10vectorizedPfm:
.LFB2533:
	.loc 2 16 0
	.cfi_startproc
	pushq	%rbp
	.cfi_def_cfa_offset 16
	.cfi_offset 6, -16
	movq	%rsp, %rbp
	.cfi_def_cfa_register 6
	movq	%rdi, -72(%rbp)
	movq	%rsi, -80(%rbp)
	.loc 2 18 0
	movq	-80(%rbp), %rax
	shrq	$2, %rax
	movq	%rax, -48(%rbp)
	.loc 2 19 0
	movq	-72(%rbp), %rax
	movq	%rax, -56(%rbp)
.LBB11:
	.loc 2 21 0
	movl	$0, -60(%rbp)
.L10:
	.loc 2 21 0 is_stmt 0 discriminator 3
	movl	-60(%rbp), %eax
	cltq
	cmpq	%rax, -48(%rbp)
	jbe	.L11
	.loc 2 23 0 is_stmt 1 discriminator 2
	movq	-56(%rbp), %rax
	movaps	(%rax), %xmm0
	movaps	%xmm0, -16(%rbp)
.LBB12:
.LBB13:
	.file 3 "/usr/lib/gcc/x86_64-linux-gnu/7/include/xmmintrin.h"
	.loc 3 210 0 discriminator 2
	sqrtps	-16(%rbp), %xmm0
	movq	-72(%rbp), %rax
	movq	%rax, -40(%rbp)
	movaps	%xmm0, -32(%rbp)
.LBE13:
.LBE12:
.LBB14:
.LBB15:
	.loc 3 976 0 discriminator 2
	movq	-40(%rbp), %rax
	movaps	-32(%rbp), %xmm0
	movaps	%xmm0, (%rax)
.LBE15:
.LBE14:
	.loc 2 21 0 discriminator 2
	addl	$1, -60(%rbp)
	addq	$16, -56(%rbp)
	addq	$16, -72(%rbp)
	jmp	.L10
.L11:
.LBE11:
	.loc 2 25 0
	nop
	popq	%rbp
	.cfi_def_cfa 7, 8
	ret
	.cfi_endproc
.LFE2533:
	.size	_Z10vectorizedPfm, .-_Z10vectorizedPfm
	.section	.rodata
	.align 8
.LC4:
	.string	"Please insert the size of the vector\n"
.LC6:
	.string	"Naive"
.LC7:
	.string	"Vectorized"
	.text
	.globl	main
	.type	main, @function
main:
.LFB2534:
	.loc 2 28 0
	.cfi_startproc
	.cfi_personality 0x9b,DW.ref.__gxx_personality_v0
	.cfi_lsda 0x1b,.LLSDA2534
	pushq	%rbp
	.cfi_def_cfa_offset 16
	.cfi_offset 6, -16
	movq	%rsp, %rbp
	.cfi_def_cfa_register 6
	pushq	%rbx
	subq	$136, %rsp
	.cfi_offset 3, -24
	movl	%edi, -132(%rbp)
	movq	%rsi, -144(%rbp)
	.loc 2 28 0
	movq	%fs:40, %rax
	movq	%rax, -24(%rbp)
	xorl	%eax, %eax
	.loc 2 29 0
	cmpl	$2, -132(%rbp)
	je	.L13
	.loc 2 31 0
	leaq	.LC4(%rip), %rsi
	leaq	_ZSt4cerr(%rip), %rdi
.LEHB0:
	call	_ZStlsISt11char_traitsIcEERSt13basic_ostreamIcT_ES5_PKc@PLT
.LEHE0:
	.loc 2 32 0
	movl	$1, %eax
	jmp	.L14
.L13:
	.loc 2 34 0
	movq	-144(%rbp), %rax
	addq	$8, %rax
	movq	(%rax), %rax
	movq	%rax, %rdi
	call	atoi@PLT
	cltq
	movq	%rax, -104(%rbp)
	.loc 2 37 0
	movq	-104(%rbp), %rax
	leaq	0(,%rax,4), %rdx
	leaq	-112(%rbp), %rax
	movl	$16, %esi
	movq	%rax, %rdi
	call	posix_memalign@PLT
.LBB16:
	.loc 2 39 0
	movl	$0, -120(%rbp)
.L16:
	.loc 2 39 0 is_stmt 0 discriminator 3
	movl	-120(%rbp), %eax
	cltq
	cmpq	%rax, -104(%rbp)
	jbe	.L15
	.loc 2 40 0 is_stmt 1 discriminator 2
	movq	-112(%rbp), %rax
	movl	-120(%rbp), %edx
	movslq	%edx, %rdx
	salq	$2, %rdx
	addq	%rdx, %rax
	movss	.LC5(%rip), %xmm0
	movss	%xmm0, (%rax)
	.loc 2 39 0 discriminator 2
	addl	$1, -120(%rbp)
	jmp	.L16
.L15:
.LBE16:
.LBB17:
	.loc 2 43 0
	leaq	-121(%rbp), %rax
	movq	%rax, %rdi
	call	_ZNSaIcEC1Ev@PLT
	leaq	-121(%rbp), %rdx
	leaq	-96(%rbp), %rax
	leaq	.LC6(%rip), %rsi
	movq	%rax, %rdi
.LEHB1:
	call	_ZNSt7__cxx1112basic_stringIcSt11char_traitsIcESaIcEEC1EPKcRKS3_@PLT
.LEHE1:
	.loc 2 43 0 is_stmt 0 discriminator 1
	leaq	-96(%rbp), %rdx
	leaq	-64(%rbp), %rax
	movq	%rdx, %rsi
	movq	%rax, %rdi
.LEHB2:
	call	_ZN5TimerC1ERKNSt7__cxx1112basic_stringIcSt11char_traitsIcESaIcEEE
.LEHE2:
	leaq	-96(%rbp), %rax
	movq	%rax, %rdi
	call	_ZNSt7__cxx1112basic_stringIcSt11char_traitsIcESaIcEED1Ev@PLT
	leaq	-121(%rbp), %rax
	movq	%rax, %rdi
	call	_ZNSaIcED1Ev@PLT
	.loc 2 44 0 is_stmt 1
	movq	-112(%rbp), %rax
	movq	-104(%rbp), %rdx
	movq	%rdx, %rsi
	movq	%rax, %rdi
	call	_Z5naivePfm
	.loc 2 43 0
	leaq	-64(%rbp), %rax
	movq	%rax, %rdi
	call	_ZN5TimerD1Ev
.LBE17:
.LBB18:
	.loc 2 47 0
	movl	$0, -116(%rbp)
.L18:
	.loc 2 47 0 is_stmt 0 discriminator 3
	movl	-116(%rbp), %eax
	cltq
	cmpq	%rax, -104(%rbp)
	jbe	.L17
	.loc 2 48 0 is_stmt 1 discriminator 2
	movq	-112(%rbp), %rax
	movl	-116(%rbp), %edx
	movslq	%edx, %rdx
	salq	$2, %rdx
	addq	%rdx, %rax
	movss	.LC5(%rip), %xmm0
	movss	%xmm0, (%rax)
	.loc 2 47 0 discriminator 2
	addl	$1, -116(%rbp)
	jmp	.L18
.L17:
.LBE18:
.LBB19:
	.loc 2 51 0
	leaq	-121(%rbp), %rax
	movq	%rax, %rdi
	call	_ZNSaIcEC1Ev@PLT
	leaq	-121(%rbp), %rdx
	leaq	-96(%rbp), %rax
	leaq	.LC7(%rip), %rsi
	movq	%rax, %rdi
.LEHB3:
	call	_ZNSt7__cxx1112basic_stringIcSt11char_traitsIcESaIcEEC1EPKcRKS3_@PLT
.LEHE3:
	.loc 2 51 0 is_stmt 0 discriminator 1
	leaq	-96(%rbp), %rdx
	leaq	-64(%rbp), %rax
	movq	%rdx, %rsi
	movq	%rax, %rdi
.LEHB4:
	call	_ZN5TimerC1ERKNSt7__cxx1112basic_stringIcSt11char_traitsIcESaIcEEE
.LEHE4:
	leaq	-96(%rbp), %rax
	movq	%rax, %rdi
	call	_ZNSt7__cxx1112basic_stringIcSt11char_traitsIcESaIcEED1Ev@PLT
	leaq	-121(%rbp), %rax
	movq	%rax, %rdi
	call	_ZNSaIcED1Ev@PLT
	.loc 2 52 0 is_stmt 1
	movq	-112(%rbp), %rax
	movq	-104(%rbp), %rdx
	movq	%rdx, %rsi
	movq	%rax, %rdi
	call	_Z10vectorizedPfm
	.loc 2 51 0
	leaq	-64(%rbp), %rax
	movq	%rax, %rdi
	call	_ZN5TimerD1Ev
.LBE19:
	.loc 2 54 0
	movl	$0, %eax
.L14:
	movq	-24(%rbp), %rcx
	xorq	%fs:40, %rcx
	je	.L23
	jmp	.L28
.L25:
	movq	%rax, %rbx
.LBB20:
	leaq	-96(%rbp), %rax
	movq	%rax, %rdi
	call	_ZNSt7__cxx1112basic_stringIcSt11char_traitsIcESaIcEED1Ev@PLT
	jmp	.L20
.L24:
	movq	%rax, %rbx
.L20:
	leaq	-121(%rbp), %rax
	movq	%rax, %rdi
	call	_ZNSaIcED1Ev@PLT
	movq	%rbx, %rax
	movq	%rax, %rdi
.LEHB5:
	call	_Unwind_Resume@PLT
.L27:
	movq	%rax, %rbx
.LBE20:
.LBB21:
	leaq	-96(%rbp), %rax
	movq	%rax, %rdi
	call	_ZNSt7__cxx1112basic_stringIcSt11char_traitsIcESaIcEED1Ev@PLT
	jmp	.L22
.L26:
	movq	%rax, %rbx
.L22:
	leaq	-121(%rbp), %rax
	movq	%rax, %rdi
	call	_ZNSaIcED1Ev@PLT
	movq	%rbx, %rax
	movq	%rax, %rdi
	call	_Unwind_Resume@PLT
.LEHE5:
.L28:
.LBE21:
	call	__stack_chk_fail@PLT
.L23:
	addq	$136, %rsp
	popq	%rbx
	popq	%rbp
	.cfi_def_cfa 7, 8
	ret
	.cfi_endproc
.LFE2534:
	.section	.gcc_except_table,"a",@progbits
.LLSDA2534:
	.byte	0xff
	.byte	0xff
	.byte	0x1
	.uleb128 .LLSDACSE2534-.LLSDACSB2534
.LLSDACSB2534:
	.uleb128 .LEHB0-.LFB2534
	.uleb128 .LEHE0-.LEHB0
	.uleb128 0
	.uleb128 0
	.uleb128 .LEHB1-.LFB2534
	.uleb128 .LEHE1-.LEHB1
	.uleb128 .L24-.LFB2534
	.uleb128 0
	.uleb128 .LEHB2-.LFB2534
	.uleb128 .LEHE2-.LEHB2
	.uleb128 .L25-.LFB2534
	.uleb128 0
	.uleb128 .LEHB3-.LFB2534
	.uleb128 .LEHE3-.LEHB3
	.uleb128 .L26-.LFB2534
	.uleb128 0
	.uleb128 .LEHB4-.LFB2534
	.uleb128 .LEHE4-.LEHB4
	.uleb128 .L27-.LFB2534
	.uleb128 0
	.uleb128 .LEHB5-.LFB2534
	.uleb128 .LEHE5-.LEHB5
	.uleb128 0
	.uleb128 0
.LLSDACSE2534:
	.text
	.size	main, .-main
	.type	_Z41__static_initialization_and_destruction_0ii, @function
_Z41__static_initialization_and_destruction_0ii:
.LFB3027:
	.loc 2 54 0
	.cfi_startproc
	pushq	%rbp
	.cfi_def_cfa_offset 16
	.cfi_offset 6, -16
	movq	%rsp, %rbp
	.cfi_def_cfa_register 6
	subq	$16, %rsp
	movl	%edi, -4(%rbp)
	movl	%esi, -8(%rbp)
	.loc 2 54 0
	cmpl	$1, -4(%rbp)
	jne	.L31
	.loc 2 54 0 is_stmt 0 discriminator 1
	cmpl	$65535, -8(%rbp)
	jne	.L31
	.file 4 "/usr/include/c++/7/iostream"
	.loc 4 74 0 is_stmt 1
	leaq	_ZStL8__ioinit(%rip), %rdi
	call	_ZNSt8ios_base4InitC1Ev@PLT
	leaq	__dso_handle(%rip), %rdx
	leaq	_ZStL8__ioinit(%rip), %rsi
	movq	_ZNSt8ios_base4InitD1Ev@GOTPCREL(%rip), %rax
	movq	%rax, %rdi
	call	__cxa_atexit@PLT
.L31:
	.loc 2 54 0
	nop
	leave
	.cfi_def_cfa 7, 8
	ret
	.cfi_endproc
.LFE3027:
	.size	_Z41__static_initialization_and_destruction_0ii, .-_Z41__static_initialization_and_destruction_0ii
	.type	_GLOBAL__sub_I__Z5naivePfm, @function
_GLOBAL__sub_I__Z5naivePfm:
.LFB3028:
	.loc 2 54 0
	.cfi_startproc
	pushq	%rbp
	.cfi_def_cfa_offset 16
	.cfi_offset 6, -16
	movq	%rsp, %rbp
	.cfi_def_cfa_register 6
	.loc 2 54 0
	movl	$65535, %esi
	movl	$1, %edi
	call	_Z41__static_initialization_and_destruction_0ii
	popq	%rbp
	.cfi_def_cfa 7, 8
	ret
	.cfi_endproc
.LFE3028:
	.size	_GLOBAL__sub_I__Z5naivePfm, .-_GLOBAL__sub_I__Z5naivePfm
	.section	.init_array,"aw"
	.align 8
	.quad	_GLOBAL__sub_I__Z5naivePfm
	.section	.rodata
	.align 8
.LC0:
	.long	0
	.long	1093567616
	.align 8
.LC2:
	.long	0
	.long	1083129856
	.align 4
.LC5:
	.long	1245691747
	.text
.Letext0:
	.file 5 "/usr/include/c++/7/bits/basic_string.h"
	.file 6 "/usr/include/c++/7/bits/basic_string.tcc"
	.file 7 "/usr/include/c++/7/bits/stringfwd.h"
	.file 8 "/usr/include/c++/7/cwchar"
	.file 9 "/usr/include/c++/7/new"
	.file 10 "/usr/include/x86_64-linux-gnu/c++/7/bits/c++config.h"
	.file 11 "/usr/include/c++/7/bits/exception_ptr.h"
	.file 12 "/usr/include/c++/7/type_traits"
	.file 13 "/usr/include/c++/7/bits/cpp_type_traits.h"
	.file 14 "/usr/include/c++/7/bits/stl_pair.h"
	.file 15 "/usr/include/c++/7/bits/stl_iterator_base_types.h"
	.file 16 "/usr/include/c++/7/debug/debug.h"
	.file 17 "/usr/include/c++/7/bits/char_traits.h"
	.file 18 "/usr/include/c++/7/cstdint"
	.file 19 "/usr/include/c++/7/clocale"
	.file 20 "/usr/include/c++/7/bits/allocator.h"
	.file 21 "/usr/include/c++/7/cstdlib"
	.file 22 "/usr/include/c++/7/cstdio"
	.file 23 "/usr/include/c++/7/bits/alloc_traits.h"
	.file 24 "/usr/include/c++/7/initializer_list"
	.file 25 "/usr/include/c++/7/chrono"
	.file 26 "/usr/include/c++/7/system_error"
	.file 27 "/usr/include/c++/7/bits/ios_base.h"
	.file 28 "/usr/include/c++/7/cwctype"
	.file 29 "/usr/include/c++/7/iosfwd"
	.file 30 "/usr/include/c++/7/cmath"
	.file 31 "/usr/include/c++/7/ctime"
	.file 32 "/usr/include/c++/7/ratio"
	.file 33 "/usr/include/c++/7/bits/stl_iterator_base_funcs.h"
	.file 34 "/usr/include/c++/7/bits/move.h"
	.file 35 "/usr/include/c++/7/bits/predefined_ops.h"
	.file 36 "/usr/include/c++/7/ext/new_allocator.h"
	.file 37 "/usr/include/c++/7/ext/numeric_traits.h"
	.file 38 "/usr/include/c++/7/ext/alloc_traits.h"
	.file 39 "/usr/include/c++/7/bits/stl_iterator.h"
	.file 40 "/usr/include/c++/7/ext/type_traits.h"
	.file 41 "/usr/lib/gcc/x86_64-linux-gnu/7/include/stddef.h"
	.file 42 "<built-in>"
	.file 43 "/usr/include/x86_64-linux-gnu/bits/types/wint_t.h"
	.file 44 "/usr/include/x86_64-linux-gnu/bits/types/__mbstate_t.h"
	.file 45 "/usr/include/x86_64-linux-gnu/bits/types/mbstate_t.h"
	.file 46 "/usr/include/x86_64-linux-gnu/bits/types/__FILE.h"
	.file 47 "/usr/include/x86_64-linux-gnu/bits/libio.h"
	.file 48 "/usr/include/x86_64-linux-gnu/bits/types/FILE.h"
	.file 49 "/usr/include/wchar.h"
	.file 50 "/usr/include/x86_64-linux-gnu/bits/types/struct_tm.h"
	.file 51 "/usr/include/x86_64-linux-gnu/bits/types.h"
	.file 52 "/usr/include/x86_64-linux-gnu/bits/stdint-intn.h"
	.file 53 "/usr/include/x86_64-linux-gnu/bits/stdint-uintn.h"
	.file 54 "/usr/include/stdint.h"
	.file 55 "/usr/include/locale.h"
	.file 56 "/usr/include/x86_64-linux-gnu/bits/types/time_t.h"
	.file 57 "/usr/include/x86_64-linux-gnu/bits/types/clock_t.h"
	.file 58 "/usr/include/time.h"
	.file 59 "/usr/include/x86_64-linux-gnu/c++/7/bits/atomic_word.h"
	.file 60 "/usr/include/stdlib.h"
	.file 61 "/usr/include/x86_64-linux-gnu/bits/_G_config.h"
	.file 62 "/usr/include/stdio.h"
	.file 63 "/usr/include/x86_64-linux-gnu/bits/sys_errlist.h"
	.file 64 "/usr/include/errno.h"
	.file 65 "/usr/include/x86_64-linux-gnu/bits/wctype-wchar.h"
	.file 66 "/usr/include/wctype.h"
	.file 67 "/usr/include/c++/7/stdlib.h"
	.file 68 "/usr/include/math.h"
	.section	.data.rel.local.DW.ref.__gxx_personality_v0,"awG",@progbits,DW.ref.__gxx_personality_v0,comdat
	.align 8
	.type	DW.ref.__gxx_personality_v0, @object
	.size	DW.ref.__gxx_personality_v0, 8
DW.ref.__gxx_personality_v0:
	.quad	__gxx_personality_v0
	.hidden	__dso_handle
	.ident	"GCC: (Ubuntu 7.5.0-3ubuntu1~18.04) 7.5.0"
	.section	.note.GNU-stack,"",@progbits
