	.text
	.file	"add_scalar_256b.cpp"
	.file	1 "/usr/lib/gcc/x86_64-linux-gnu/7.5.0/../../../../include/x86_64-linux-gnu/c++/7.5.0/bits" "atomic_word.h"
	.file	2 "/usr/lib/gcc/x86_64-linux-gnu/7.5.0/../../../../include/c++/7.5.0/bits" "ios_base.h"
	.file	3 "/usr/lib/gcc/x86_64-linux-gnu/7.5.0/../../../../include/c++/7.5.0" "iostream"
	.file	4 "/opt/intel/oneapi/compiler/2021.2.0/linux/lib/clang/12.0.0/include" "avxintrin.h"
	.file	5 "/usr/include/x86_64-linux-gnu/bits" "types.h"
	.file	6 "/usr/include/x86_64-linux-gnu/bits/types" "__mbstate_t.h"
	.file	7 "/usr/include/x86_64-linux-gnu/bits/types" "mbstate_t.h"
	.file	8 "/usr/lib/gcc/x86_64-linux-gnu/7.5.0/../../../../include/c++/7.5.0" "cwchar"
	.file	9 "/usr/include/x86_64-linux-gnu/bits/types" "wint_t.h"
	.file	10 "/usr/include" "wchar.h"
	.file	11 "/usr/include/x86_64-linux-gnu/bits/types" "__FILE.h"
	.file	12 "/opt/intel/oneapi/compiler/2021.2.0/linux/lib/clang/12.0.0/include" "stddef.h"
	.file	13 "/usr/lib/gcc/x86_64-linux-gnu/7.5.0/../../../../include/c++/7.5.0/bits" "exception_ptr.h"
	.file	14 "/usr/lib/gcc/x86_64-linux-gnu/7.5.0/../../../../include/x86_64-linux-gnu/c++/7.5.0/bits" "c++config.h"
	.file	15 "/usr/lib/gcc/x86_64-linux-gnu/7.5.0/../../../../include/c++/7.5.0/debug" "debug.h"
	.file	16 "/usr/include/x86_64-linux-gnu/bits" "stdint-intn.h"
	.file	17 "/usr/lib/gcc/x86_64-linux-gnu/7.5.0/../../../../include/c++/7.5.0" "cstdint"
	.file	18 "/usr/include" "stdint.h"
	.file	19 "/usr/include/x86_64-linux-gnu/bits" "stdint-uintn.h"
	.file	20 "/usr/lib/gcc/x86_64-linux-gnu/7.5.0/../../../../include/c++/7.5.0" "clocale"
	.file	21 "/usr/include" "locale.h"
	.file	22 "/usr/include" "ctype.h"
	.file	23 "/usr/lib/gcc/x86_64-linux-gnu/7.5.0/../../../../include/c++/7.5.0" "cctype"
	.file	24 "/usr/lib/gcc/x86_64-linux-gnu/7.5.0/../../../../include/c++/7.5.0/ext" "new_allocator.h"
	.file	25 "/usr/include" "stdlib.h"
	.file	26 "/usr/lib/gcc/x86_64-linux-gnu/7.5.0/../../../../include/c++/7.5.0/bits" "std_abs.h"
	.file	27 "/usr/lib/gcc/x86_64-linux-gnu/7.5.0/../../../../include/c++/7.5.0" "cstdlib"
	.file	28 "/usr/include/x86_64-linux-gnu/bits/types" "FILE.h"
	.file	29 "/usr/lib/gcc/x86_64-linux-gnu/7.5.0/../../../../include/c++/7.5.0" "cstdio"
	.file	30 "/usr/include/x86_64-linux-gnu/bits" "_G_config.h"
	.file	31 "/usr/include" "stdio.h"
	.file	32 "/usr/include" "wctype.h"
	.file	33 "/usr/lib/gcc/x86_64-linux-gnu/7.5.0/../../../../include/c++/7.5.0" "cwctype"
	.file	34 "/usr/include/x86_64-linux-gnu/bits" "wctype-wchar.h"
	.file	35 "/usr/lib/gcc/x86_64-linux-gnu/7.5.0/../../../../include/c++/7.5.0" "stdlib.h"
	.file	36 "/usr/include/x86_64-linux-gnu/bits/types" "clock_t.h"
	.file	37 "/usr/lib/gcc/x86_64-linux-gnu/7.5.0/../../../../include/c++/7.5.0" "ctime"
	.file	38 "/usr/include/x86_64-linux-gnu/bits/types" "time_t.h"
	.file	39 "/usr/include" "time.h"
	.file	40 "/usr/lib/gcc/x86_64-linux-gnu/7.5.0/../../../../include/c++/7.5.0" "chrono"
	.section	.text.startup,"ax",@progbits
	.p2align	4, 0x90                         # -- Begin function __cxx_global_var_init
	.type	__cxx_global_var_init,@function
__cxx_global_var_init:                  # 
.Lfunc_begin0:
	.file	41 "/home/mirco/Scrivania/PhD/1-Programming/VectorMacros" "intrinsic_functions/add_scalar_256b.cpp"
	.loc	41 0 0                          # intrinsic_functions/add_scalar_256b.cpp:0:0
	.cfi_startproc
# %bb.0:
	pushq	%rbp
	.cfi_def_cfa_offset 16
	.cfi_offset %rbp, -16
	movq	%rsp, %rbp
	.cfi_def_cfa_register %rbp
.Ltmp0:
	.loc	3 74 25 prologue_end            # /usr/lib/gcc/x86_64-linux-gnu/7.5.0/../../../../include/c++/7.5.0/iostream:74:25
	movabsq	$_ZStL8__ioinit, %rdi
	callq	_ZNSt8ios_base4InitC1Ev
	movabsq	$_ZNSt8ios_base4InitD1Ev, %rdi
	.loc	41 0 0 is_stmt 0                # intrinsic_functions/add_scalar_256b.cpp:0:0
	movabsq	$_ZStL8__ioinit, %rsi
	movabsq	$__dso_handle, %rdx
	callq	__cxa_atexit
	.loc	3 74 25                         # /usr/lib/gcc/x86_64-linux-gnu/7.5.0/../../../../include/c++/7.5.0/iostream:74:25
	popq	%rbp
	.cfi_def_cfa %rsp, 8
	retq
.Ltmp1:
.Lfunc_end0:
	.size	__cxx_global_var_init, .Lfunc_end0-__cxx_global_var_init
	.cfi_endproc
                                        # -- End function
	.text
	.globl	_Z5naivePffS_m                  # -- Begin function _Z5naivePffS_m
	.p2align	4, 0x90
	.type	_Z5naivePffS_m,@function
_Z5naivePffS_m:                         # 
.Lfunc_begin1:
	.loc	41 8 0 is_stmt 1                # intrinsic_functions/add_scalar_256b.cpp:8:0
	.cfi_startproc
# %bb.0:
	pushq	%rbp
	.cfi_def_cfa_offset 16
	.cfi_offset %rbp, -16
	movq	%rsp, %rbp
	.cfi_def_cfa_register %rbp
	movq	%rdi, -8(%rbp)
	vmovss	%xmm0, -12(%rbp)
	movq	%rsi, -24(%rbp)
	movq	%rdx, -32(%rbp)
.Ltmp2:
	.loc	41 9 14 prologue_end            # intrinsic_functions/add_scalar_256b.cpp:9:14
	movl	$0, -36(%rbp)
.LBB1_1:                                # =>This Inner Loop Header: Depth=1
.Ltmp3:
	.loc	41 9 21 is_stmt 0               # intrinsic_functions/add_scalar_256b.cpp:9:21
	movslq	-36(%rbp), %rax
	.loc	41 9 23                         # intrinsic_functions/add_scalar_256b.cpp:9:23
	cmpq	-32(%rbp), %rax
.Ltmp4:
	.loc	41 9 5                          # intrinsic_functions/add_scalar_256b.cpp:9:5
	jae	.LBB1_4
# %bb.2:                                #   in Loop: Header=BB1_1 Depth=1
.Ltmp5:
	.loc	41 11 16 is_stmt 1              # intrinsic_functions/add_scalar_256b.cpp:11:16
	movq	-8(%rbp), %rax
	movslq	-36(%rbp), %rcx
	vmovss	(%rax,%rcx,4), %xmm0            # xmm0 = mem[0],zero,zero,zero
	.loc	41 11 21 is_stmt 0              # intrinsic_functions/add_scalar_256b.cpp:11:21
	vaddss	-12(%rbp), %xmm0, %xmm0
	.loc	41 11 9                         # intrinsic_functions/add_scalar_256b.cpp:11:9
	movq	-24(%rbp), %rax
	movslq	-36(%rbp), %rcx
	.loc	41 11 14                        # intrinsic_functions/add_scalar_256b.cpp:11:14
	vmovss	%xmm0, (%rax,%rcx,4)
.Ltmp6:
# %bb.3:                                #   in Loop: Header=BB1_1 Depth=1
	.loc	41 9 29 is_stmt 1               # intrinsic_functions/add_scalar_256b.cpp:9:29
	movl	-36(%rbp), %eax
	addl	$1, %eax
	movl	%eax, -36(%rbp)
	.loc	41 9 5 is_stmt 0                # intrinsic_functions/add_scalar_256b.cpp:9:5
	jmp	.LBB1_1
.Ltmp7:
.LBB1_4:
	.loc	41 13 1 is_stmt 1               # intrinsic_functions/add_scalar_256b.cpp:13:1
	popq	%rbp
	.cfi_def_cfa %rsp, 8
	retq
.Ltmp8:
.Lfunc_end1:
	.size	_Z5naivePffS_m, .Lfunc_end1-_Z5naivePffS_m
	.cfi_endproc
                                        # -- End function
	.globl	_Z10vectorizedPffS_m            # -- Begin function _Z10vectorizedPffS_m
	.p2align	4, 0x90
	.type	_Z10vectorizedPffS_m,@function
_Z10vectorizedPffS_m:                   # 
.Lfunc_begin2:
	.loc	41 16 0                         # intrinsic_functions/add_scalar_256b.cpp:16:0
	.cfi_startproc
# %bb.0:
	pushq	%rbp
	.cfi_def_cfa_offset 16
	.cfi_offset %rbp, -16
	movq	%rsp, %rbp
	.cfi_def_cfa_register %rbp
	andq	$-32, %rsp
	subq	$288, %rsp                      # imm = 0x120
	movq	%rdi, 56(%rsp)
	vmovss	%xmm0, 52(%rsp)
	movq	%rsi, 40(%rsp)
	movq	%rdx, 32(%rsp)
.Ltmp9:
	.loc	41 17 30 prologue_end           # intrinsic_functions/add_scalar_256b.cpp:17:30
	movq	32(%rsp), %rax
	.loc	41 17 32 is_stmt 0              # intrinsic_functions/add_scalar_256b.cpp:17:32
	shrq	$3, %rax
	.loc	41 17 20                        # intrinsic_functions/add_scalar_256b.cpp:17:20
	movq	%rax, 24(%rsp)
.Ltmp10:
	.loc	41 19 14 is_stmt 1              # intrinsic_functions/add_scalar_256b.cpp:19:14
	movl	$0, 20(%rsp)
.LBB2_1:                                # =>This Inner Loop Header: Depth=1
.Ltmp11:
	.loc	41 19 21 is_stmt 0              # intrinsic_functions/add_scalar_256b.cpp:19:21
	movslq	20(%rsp), %rax
	.loc	41 19 23                        # intrinsic_functions/add_scalar_256b.cpp:19:23
	cmpq	24(%rsp), %rax
.Ltmp12:
	.loc	41 19 5                         # intrinsic_functions/add_scalar_256b.cpp:19:5
	jae	.LBB2_4
# %bb.2:                                #   in Loop: Header=BB2_1 Depth=1
.Ltmp13:
	.loc	41 21 25 is_stmt 1              # intrinsic_functions/add_scalar_256b.cpp:21:25
	movq	40(%rsp), %rax
	.loc	41 21 52 is_stmt 0              # intrinsic_functions/add_scalar_256b.cpp:21:52
	movq	56(%rsp), %rcx
	.loc	41 21 42                        # intrinsic_functions/add_scalar_256b.cpp:21:42
	vmovaps	(%rcx), %ymm1
	.loc	41 21 69                        # intrinsic_functions/add_scalar_256b.cpp:21:69
	vmovss	52(%rsp), %xmm0                 # xmm0 = mem[0],zero,zero,zero
	vmovss	%xmm0, 16(%rsp)                 # 4-byte Spill
	.loc	41 21 55                        # intrinsic_functions/add_scalar_256b.cpp:21:55
	vmovss	%xmm0, 124(%rsp)
	vmovss	%xmm0, 120(%rsp)
	vmovss	%xmm0, 116(%rsp)
	vmovss	%xmm0, 112(%rsp)
	vmovss	%xmm0, 108(%rsp)
	vmovss	%xmm0, 104(%rsp)
	vmovss	%xmm0, 100(%rsp)
	vmovss	%xmm0, 96(%rsp)
	vmovss	116(%rsp), %xmm2                # xmm2 = mem[0],zero,zero,zero
	vmovss	112(%rsp), %xmm0                # xmm0 = mem[0],zero,zero,zero
	vinsertps	$16, %xmm2, %xmm0, %xmm0 # xmm0 = xmm0[0],xmm2[0],xmm0[2,3]
	vmovss	120(%rsp), %xmm2                # xmm2 = mem[0],zero,zero,zero
	vinsertps	$32, %xmm2, %xmm0, %xmm0 # xmm0 = xmm0[0,1],xmm2[0],xmm0[3]
	vmovss	124(%rsp), %xmm2                # xmm2 = mem[0],zero,zero,zero
	vinsertps	$48, %xmm2, %xmm0, %xmm2 # xmm2 = xmm0[0,1,2],xmm2[0]
	vmovss	100(%rsp), %xmm3                # xmm3 = mem[0],zero,zero,zero
	vmovss	96(%rsp), %xmm0                 # xmm0 = mem[0],zero,zero,zero
	vinsertps	$16, %xmm3, %xmm0, %xmm0 # xmm0 = xmm0[0],xmm3[0],xmm0[2,3]
	vmovss	104(%rsp), %xmm3                # xmm3 = mem[0],zero,zero,zero
	vinsertps	$32, %xmm3, %xmm0, %xmm0 # xmm0 = xmm0[0,1],xmm3[0],xmm0[3]
	vmovss	108(%rsp), %xmm3                # xmm3 = mem[0],zero,zero,zero
	vinsertps	$48, %xmm3, %xmm0, %xmm3 # xmm3 = xmm0[0,1,2],xmm3[0]
                                        # implicit-def: $ymm0
	vmovaps	%xmm3, %xmm0
	vinsertf128	$1, %xmm2, %ymm0, %ymm0
	vmovaps	%ymm0, 64(%rsp)
	vmovaps	64(%rsp), %ymm0
	.loc	41 21 28                        # intrinsic_functions/add_scalar_256b.cpp:21:28
	vmovaps	%ymm1, 224(%rsp)
	vmovaps	%ymm0, 192(%rsp)
	vmovaps	224(%rsp), %ymm0
	vaddps	192(%rsp), %ymm0, %ymm0
	.loc	41 21 9                         # intrinsic_functions/add_scalar_256b.cpp:21:9
	movq	%rax, 184(%rsp)
	vmovaps	%ymm0, 128(%rsp)
	vmovaps	128(%rsp), %ymm0
	movq	184(%rsp), %rax
	vmovaps	%ymm0, (%rax)
.Ltmp14:
# %bb.3:                                #   in Loop: Header=BB2_1 Depth=1
	.loc	41 19 35 is_stmt 1              # intrinsic_functions/add_scalar_256b.cpp:19:35
	movl	20(%rsp), %eax
	addl	$1, %eax
	movl	%eax, 20(%rsp)
	.loc	41 19 40 is_stmt 0              # intrinsic_functions/add_scalar_256b.cpp:19:40
	movq	56(%rsp), %rax
	addq	$32, %rax
	movq	%rax, 56(%rsp)
	.loc	41 19 46                        # intrinsic_functions/add_scalar_256b.cpp:19:46
	movq	40(%rsp), %rax
	addq	$32, %rax
	movq	%rax, 40(%rsp)
	.loc	41 19 5                         # intrinsic_functions/add_scalar_256b.cpp:19:5
	jmp	.LBB2_1
.Ltmp15:
.LBB2_4:
	.loc	41 23 1 is_stmt 1               # intrinsic_functions/add_scalar_256b.cpp:23:1
	movq	%rbp, %rsp
	popq	%rbp
	.cfi_def_cfa %rsp, 8
	vzeroupper
	retq
.Ltmp16:
.Lfunc_end2:
	.size	_Z10vectorizedPffS_m, .Lfunc_end2-_Z10vectorizedPffS_m
	.cfi_endproc
                                        # -- End function
	.globl	_Z16vectorized_macroPfS_S_m     # -- Begin function _Z16vectorized_macroPfS_S_m
	.p2align	4, 0x90
	.type	_Z16vectorized_macroPfS_S_m,@function
_Z16vectorized_macroPfS_S_m:            # 
.Lfunc_begin3:
	.loc	41 26 0                         # intrinsic_functions/add_scalar_256b.cpp:26:0
	.cfi_startproc
# %bb.0:
	pushq	%rbp
	.cfi_def_cfa_offset 16
	.cfi_offset %rbp, -16
	movq	%rsp, %rbp
	.cfi_def_cfa_register %rbp
	movq	%rdi, -8(%rbp)
	movq	%rsi, -16(%rbp)
	movq	%rdx, -24(%rbp)
	movq	%rcx, -32(%rbp)
.Ltmp17:
	.loc	41 27 30 prologue_end           # intrinsic_functions/add_scalar_256b.cpp:27:30
	movq	-32(%rbp), %rax
	.loc	41 27 32 is_stmt 0              # intrinsic_functions/add_scalar_256b.cpp:27:32
	shrq	$3, %rax
	.loc	41 27 20                        # intrinsic_functions/add_scalar_256b.cpp:27:20
	movq	%rax, -40(%rbp)
.Ltmp18:
	.loc	41 30 14 is_stmt 1              # intrinsic_functions/add_scalar_256b.cpp:30:14
	movl	$0, -44(%rbp)
.LBB3_1:                                # =>This Inner Loop Header: Depth=1
.Ltmp19:
	.loc	41 30 21 is_stmt 0              # intrinsic_functions/add_scalar_256b.cpp:30:21
	movslq	-44(%rbp), %rax
	.loc	41 30 23                        # intrinsic_functions/add_scalar_256b.cpp:30:23
	cmpq	-40(%rbp), %rax
.Ltmp20:
	.loc	41 30 5                         # intrinsic_functions/add_scalar_256b.cpp:30:5
	jae	.LBB3_4
# %bb.2:                                #   in Loop: Header=BB3_1 Depth=1
.Ltmp21:
	.loc	41 32 9 is_stmt 1               # intrinsic_functions/add_scalar_256b.cpp:32:9
	movq	-24(%rbp), %rax
	movq	-8(%rbp), %rcx
	vmovaps	(%rcx), %ymm0
	movq	-16(%rbp), %rcx
	vmovaps	(%rcx), %ymm1
	#APP
	vaddps	%ymm0, %ymm1, %ymm0
	#NO_APP
	vmovaps	%ymm0, (%rax)
.Ltmp22:
# %bb.3:                                #   in Loop: Header=BB3_1 Depth=1
	.loc	41 30 35                        # intrinsic_functions/add_scalar_256b.cpp:30:35
	movl	-44(%rbp), %eax
	addl	$1, %eax
	movl	%eax, -44(%rbp)
	.loc	41 30 40 is_stmt 0              # intrinsic_functions/add_scalar_256b.cpp:30:40
	movq	-8(%rbp), %rax
	addq	$32, %rax
	movq	%rax, -8(%rbp)
	.loc	41 30 46                        # intrinsic_functions/add_scalar_256b.cpp:30:46
	movq	-16(%rbp), %rax
	addq	$32, %rax
	movq	%rax, -16(%rbp)
	.loc	41 30 52                        # intrinsic_functions/add_scalar_256b.cpp:30:52
	movq	-24(%rbp), %rax
	addq	$32, %rax
	movq	%rax, -24(%rbp)
	.loc	41 30 5                         # intrinsic_functions/add_scalar_256b.cpp:30:5
	jmp	.LBB3_1
.Ltmp23:
.LBB3_4:
	.loc	41 34 1 is_stmt 1               # intrinsic_functions/add_scalar_256b.cpp:34:1
	popq	%rbp
	.cfi_def_cfa %rsp, 8
	vzeroupper
	retq
.Ltmp24:
.Lfunc_end3:
	.size	_Z16vectorized_macroPfS_S_m, .Lfunc_end3-_Z16vectorized_macroPfS_S_m
	.cfi_endproc
                                        # -- End function
	.section	.rodata.cst4,"aM",@progbits,4
	.p2align	2                               # -- Begin function main
.LCPI4_0:
	.long	0x40000000                      #  2
	.text
	.globl	main
	.p2align	4, 0x90
	.type	main,@function
main:                                   # 
.Lfunc_begin4:
	.loc	41 37 0                         # intrinsic_functions/add_scalar_256b.cpp:37:0
	.cfi_startproc
	.cfi_personality 3, __gxx_personality_v0
	.cfi_lsda 3, .Lexception0
# %bb.0:
	pushq	%rbp
	.cfi_def_cfa_offset 16
	.cfi_offset %rbp, -16
	movq	%rsp, %rbp
	.cfi_def_cfa_register %rbp
	subq	$256, %rsp                      # imm = 0x100
	movl	$0, -4(%rbp)
	movl	%edi, -8(%rbp)
	movq	%rsi, -16(%rbp)
.Ltmp40:
	.loc	41 38 14 prologue_end           # intrinsic_functions/add_scalar_256b.cpp:38:14
	cmpl	$2, -8(%rbp)
.Ltmp41:
	.loc	41 38 9 is_stmt 0               # intrinsic_functions/add_scalar_256b.cpp:38:9
	je	.LBB4_2
# %bb.1:
.Ltmp42:
	.loc	41 40 19 is_stmt 1              # intrinsic_functions/add_scalar_256b.cpp:40:19
	movabsq	$_ZSt4cerr, %rdi
	movabsq	$.L.str, %rsi
	callq	_ZStlsISt11char_traitsIcEERSt13basic_ostreamIcT_ES5_PKc
	.loc	41 41 9                         # intrinsic_functions/add_scalar_256b.cpp:41:9
	movl	$1, -4(%rbp)
	jmp	.LBB4_23
.Ltmp43:
.LBB4_2:
	.loc	41 43 29                        # intrinsic_functions/add_scalar_256b.cpp:43:29
	movq	-16(%rbp), %rax
	movq	8(%rax), %rdi
	.loc	41 43 24 is_stmt 0              # intrinsic_functions/add_scalar_256b.cpp:43:24
	callq	atoi
	cltq
	.loc	41 43 20                        # intrinsic_functions/add_scalar_256b.cpp:43:20
	movq	%rax, -24(%rbp)
	.loc	41 48 20 is_stmt 1              # intrinsic_functions/add_scalar_256b.cpp:48:20
	leaq	-32(%rbp), %rdi
.Ltmp44:
	#DEBUG_VALUE: main:a <- [$rdi+0]
	.loc	41 48 37 is_stmt 0              # intrinsic_functions/add_scalar_256b.cpp:48:37
	movq	-24(%rbp), %rdx
	.loc	41 48 39                        # intrinsic_functions/add_scalar_256b.cpp:48:39
	shlq	$2, %rdx
	.loc	41 48 5                         # intrinsic_functions/add_scalar_256b.cpp:48:5
	movl	$32, %esi
	callq	posix_memalign
.Ltmp45:
	.loc	41 49 20 is_stmt 1              # intrinsic_functions/add_scalar_256b.cpp:49:20
	leaq	-48(%rbp), %rdi
	.loc	41 49 37 is_stmt 0              # intrinsic_functions/add_scalar_256b.cpp:49:37
	movq	-24(%rbp), %rdx
	.loc	41 49 39                        # intrinsic_functions/add_scalar_256b.cpp:49:39
	shlq	$2, %rdx
	.loc	41 49 5                         # intrinsic_functions/add_scalar_256b.cpp:49:5
	movl	$32, %esi
	callq	posix_memalign
.Ltmp46:
	.loc	41 51 14 is_stmt 1              # intrinsic_functions/add_scalar_256b.cpp:51:14
	movl	$0, -52(%rbp)
.LBB4_3:                                # =>This Inner Loop Header: Depth=1
.Ltmp47:
	.loc	41 51 21 is_stmt 0              # intrinsic_functions/add_scalar_256b.cpp:51:21
	movslq	-52(%rbp), %rax
	.loc	41 51 23                        # intrinsic_functions/add_scalar_256b.cpp:51:23
	cmpq	-24(%rbp), %rax
.Ltmp48:
	.loc	41 51 5                         # intrinsic_functions/add_scalar_256b.cpp:51:5
	jae	.LBB4_6
# %bb.4:                                #   in Loop: Header=BB4_3 Depth=1
	vmovss	.LCPI4_0(%rip), %xmm0           # xmm0 = mem[0],zero,zero,zero
.Ltmp49:
	.loc	41 53 9 is_stmt 1               # intrinsic_functions/add_scalar_256b.cpp:53:9
	movq	-32(%rbp), %rax
	movslq	-52(%rbp), %rcx
	.loc	41 53 14 is_stmt 0              # intrinsic_functions/add_scalar_256b.cpp:53:14
	vmovss	%xmm0, (%rax,%rcx,4)
	.loc	41 54 9 is_stmt 1               # intrinsic_functions/add_scalar_256b.cpp:54:9
	movq	-48(%rbp), %rax
	movslq	-52(%rbp), %rcx
	.loc	41 54 14 is_stmt 0              # intrinsic_functions/add_scalar_256b.cpp:54:14
	vxorps	%xmm0, %xmm0, %xmm0
	vmovss	%xmm0, (%rax,%rcx,4)
.Ltmp50:
# %bb.5:                                #   in Loop: Header=BB4_3 Depth=1
	.loc	41 51 29 is_stmt 1              # intrinsic_functions/add_scalar_256b.cpp:51:29
	movl	-52(%rbp), %eax
	addl	$1, %eax
	movl	%eax, -52(%rbp)
	.loc	41 51 5 is_stmt 0               # intrinsic_functions/add_scalar_256b.cpp:51:5
	jmp	.LBB4_3
.Ltmp51:
.LBB4_6:
	.loc	41 56 7 is_stmt 1               # intrinsic_functions/add_scalar_256b.cpp:56:7
	movl	$1092616192, -36(%rbp)          # imm = 0x41200000
	leaq	-136(%rbp), %rdi
	movq	%rdi, -240(%rbp)                # 8-byte Spill
.Ltmp52:
	.loc	41 59 9                         # intrinsic_functions/add_scalar_256b.cpp:59:9
	callq	_ZNSaIcEC1Ev
	movq	-240(%rbp), %rdx                # 8-byte Reload
.Ltmp25:
	movl	$.L.str.1, %esi
	leaq	-128(%rbp), %rdi
	callq	_ZNSt7__cxx1112basic_stringIcSt11char_traitsIcESaIcEEC1EPKcRKS3_
.Ltmp26:
	jmp	.LBB4_7
.LBB4_7:
.Ltmp28:
	leaq	-96(%rbp), %rdi
	leaq	-128(%rbp), %rsi
	callq	_ZN5TimerC2ERKNSt7__cxx1112basic_stringIcSt11char_traitsIcESaIcEEE
.Ltmp29:
	jmp	.LBB4_8
.LBB4_8:
	leaq	-128(%rbp), %rdi
	callq	_ZNSt7__cxx1112basic_stringIcSt11char_traitsIcESaIcEED1Ev
	leaq	-136(%rbp), %rdi
	callq	_ZNSaIcED1Ev
	.loc	41 60 15                        # intrinsic_functions/add_scalar_256b.cpp:60:15
	movq	-32(%rbp), %rdi
	.loc	41 60 18 is_stmt 0              # intrinsic_functions/add_scalar_256b.cpp:60:18
	vmovss	-36(%rbp), %xmm0                # xmm0 = mem[0],zero,zero,zero
	.loc	41 60 21                        # intrinsic_functions/add_scalar_256b.cpp:60:21
	movq	-48(%rbp), %rsi
	.loc	41 60 24                        # intrinsic_functions/add_scalar_256b.cpp:60:24
	movq	-24(%rbp), %rdx
	.loc	41 60 9                         # intrinsic_functions/add_scalar_256b.cpp:60:9
	callq	_Z5naivePffS_m
.Ltmp53:
	.loc	41 61 5 is_stmt 1               # intrinsic_functions/add_scalar_256b.cpp:61:5
	leaq	-96(%rbp), %rdi
	callq	_ZN5TimerD2Ev
.Ltmp54:
	.loc	41 63 14                        # intrinsic_functions/add_scalar_256b.cpp:63:14
	movl	$0, -152(%rbp)
.LBB4_9:                                # =>This Inner Loop Header: Depth=1
.Ltmp55:
	.loc	41 63 21 is_stmt 0              # intrinsic_functions/add_scalar_256b.cpp:63:21
	movslq	-152(%rbp), %rax
	.loc	41 63 23                        # intrinsic_functions/add_scalar_256b.cpp:63:23
	cmpq	-24(%rbp), %rax
.Ltmp56:
	.loc	41 63 5                         # intrinsic_functions/add_scalar_256b.cpp:63:5
	jae	.LBB4_15
# %bb.10:                               #   in Loop: Header=BB4_9 Depth=1
	vmovss	.LCPI4_0(%rip), %xmm0           # xmm0 = mem[0],zero,zero,zero
.Ltmp57:
	.loc	41 65 9 is_stmt 1               # intrinsic_functions/add_scalar_256b.cpp:65:9
	movq	-32(%rbp), %rax
	movslq	-152(%rbp), %rcx
	.loc	41 65 14 is_stmt 0              # intrinsic_functions/add_scalar_256b.cpp:65:14
	vmovss	%xmm0, (%rax,%rcx,4)
	.loc	41 66 9 is_stmt 1               # intrinsic_functions/add_scalar_256b.cpp:66:9
	movq	-48(%rbp), %rax
	movslq	-152(%rbp), %rcx
	.loc	41 66 14 is_stmt 0              # intrinsic_functions/add_scalar_256b.cpp:66:14
	vxorps	%xmm0, %xmm0, %xmm0
	vmovss	%xmm0, (%rax,%rcx,4)
.Ltmp58:
# %bb.11:                               #   in Loop: Header=BB4_9 Depth=1
	.loc	41 63 29 is_stmt 1              # intrinsic_functions/add_scalar_256b.cpp:63:29
	movl	-152(%rbp), %eax
	addl	$1, %eax
	movl	%eax, -152(%rbp)
	.loc	41 63 5 is_stmt 0               # intrinsic_functions/add_scalar_256b.cpp:63:5
	jmp	.LBB4_9
.Ltmp59:
.LBB4_12:
.Ltmp27:
	movq	%rax, %rcx
.Ltmp60:
	.loc	41 93 1 is_stmt 1               # intrinsic_functions/add_scalar_256b.cpp:93:1
	movl	%edx, %eax
	movq	%rcx, -144(%rbp)
	movl	%eax, -148(%rbp)
	jmp	.LBB4_14
.LBB4_13:
.Ltmp30:
	movq	%rax, %rcx
	movl	%edx, %eax
	movq	%rcx, -144(%rbp)
	movl	%eax, -148(%rbp)
	.loc	41 59 9                         # intrinsic_functions/add_scalar_256b.cpp:59:9
	leaq	-128(%rbp), %rdi
	callq	_ZNSt7__cxx1112basic_stringIcSt11char_traitsIcESaIcEED1Ev
.LBB4_14:
	leaq	-136(%rbp), %rdi
	callq	_ZNSaIcED1Ev
	jmp	.LBB4_24
.Ltmp61:
.LBB4_15:
	.loc	41 68 7                         # intrinsic_functions/add_scalar_256b.cpp:68:7
	movl	$1092616192, -36(%rbp)          # imm = 0x41200000
	leaq	-232(%rbp), %rdi
	movq	%rdi, -248(%rbp)                # 8-byte Spill
.Ltmp62:
	.loc	41 71 9                         # intrinsic_functions/add_scalar_256b.cpp:71:9
	callq	_ZNSaIcEC1Ev
	movq	-248(%rbp), %rdx                # 8-byte Reload
.Ltmp31:
	movl	$.L.str.2, %esi
	leaq	-224(%rbp), %rdi
	callq	_ZNSt7__cxx1112basic_stringIcSt11char_traitsIcESaIcEEC1EPKcRKS3_
.Ltmp32:
	jmp	.LBB4_16
.LBB4_16:
.Ltmp34:
	leaq	-192(%rbp), %rdi
	leaq	-224(%rbp), %rsi
	callq	_ZN5TimerC2ERKNSt7__cxx1112basic_stringIcSt11char_traitsIcESaIcEEE
.Ltmp35:
	jmp	.LBB4_17
.LBB4_17:
	leaq	-224(%rbp), %rdi
	callq	_ZNSt7__cxx1112basic_stringIcSt11char_traitsIcESaIcEED1Ev
	leaq	-232(%rbp), %rdi
	callq	_ZNSaIcED1Ev
	.loc	41 72 20                        # intrinsic_functions/add_scalar_256b.cpp:72:20
	movq	-32(%rbp), %rdi
	.loc	41 72 23 is_stmt 0              # intrinsic_functions/add_scalar_256b.cpp:72:23
	vmovss	-36(%rbp), %xmm0                # xmm0 = mem[0],zero,zero,zero
	.loc	41 72 26                        # intrinsic_functions/add_scalar_256b.cpp:72:26
	movq	-48(%rbp), %rsi
	.loc	41 72 29                        # intrinsic_functions/add_scalar_256b.cpp:72:29
	movq	-24(%rbp), %rdx
.Ltmp37:
	.loc	41 72 9                         # intrinsic_functions/add_scalar_256b.cpp:72:9
	callq	_Z10vectorizedPffS_m
.Ltmp38:
	jmp	.LBB4_18
.Ltmp63:
.LBB4_18:
	.loc	41 73 5 is_stmt 1               # intrinsic_functions/add_scalar_256b.cpp:73:5
	leaq	-192(%rbp), %rdi
	callq	_ZN5TimerD2Ev
	.loc	41 92 5                         # intrinsic_functions/add_scalar_256b.cpp:92:5
	movl	$0, -4(%rbp)
	jmp	.LBB4_23
.LBB4_19:
.Ltmp33:
	movq	%rax, %rcx
.Ltmp64:
	.loc	41 93 1                         # intrinsic_functions/add_scalar_256b.cpp:93:1
	movl	%edx, %eax
	movq	%rcx, -144(%rbp)
	movl	%eax, -148(%rbp)
	jmp	.LBB4_21
.LBB4_20:
.Ltmp36:
	movq	%rax, %rcx
	movl	%edx, %eax
	movq	%rcx, -144(%rbp)
	movl	%eax, -148(%rbp)
	.loc	41 71 9                         # intrinsic_functions/add_scalar_256b.cpp:71:9
	leaq	-224(%rbp), %rdi
	callq	_ZNSt7__cxx1112basic_stringIcSt11char_traitsIcESaIcEED1Ev
.LBB4_21:
	leaq	-232(%rbp), %rdi
	callq	_ZNSaIcED1Ev
	jmp	.LBB4_24
.LBB4_22:
.Ltmp39:
	movq	%rax, %rcx
	.loc	41 93 1                         # intrinsic_functions/add_scalar_256b.cpp:93:1
	movl	%edx, %eax
	movq	%rcx, -144(%rbp)
	movl	%eax, -148(%rbp)
.Ltmp65:
	.loc	41 73 5                         # intrinsic_functions/add_scalar_256b.cpp:73:5
	leaq	-192(%rbp), %rdi
	callq	_ZN5TimerD2Ev
	jmp	.LBB4_24
.LBB4_23:
	.loc	41 93 1                         # intrinsic_functions/add_scalar_256b.cpp:93:1
	movl	-4(%rbp), %eax
	addq	$256, %rsp                      # imm = 0x100
	popq	%rbp
	.cfi_def_cfa %rsp, 8
	retq
.LBB4_24:
	.cfi_def_cfa %rbp, 16
.Ltmp66:
	.loc	41 59 9                         # intrinsic_functions/add_scalar_256b.cpp:59:9
	movq	-144(%rbp), %rdi
	callq	_Unwind_Resume@PLT
.Ltmp67:
.Lfunc_end4:
	.size	main, .Lfunc_end4-main
	.cfi_endproc
	.section	.gcc_except_table,"a",@progbits
	.p2align	2
GCC_except_table4:
.Lexception0:
	.byte	255                             # @LPStart Encoding = omit
	.byte	255                             # @TType Encoding = omit
	.byte	1                               # Call site Encoding = uleb128
	.uleb128 .Lcst_end0-.Lcst_begin0
.Lcst_begin0:
	.uleb128 .Lfunc_begin4-.Lfunc_begin4    # >> Call Site 1 <<
	.uleb128 .Ltmp25-.Lfunc_begin4          #   Call between .Lfunc_begin4 and .Ltmp25
	.byte	0                               #     has no landing pad
	.byte	0                               #   On action: cleanup
	.uleb128 .Ltmp25-.Lfunc_begin4          # >> Call Site 2 <<
	.uleb128 .Ltmp26-.Ltmp25                #   Call between .Ltmp25 and .Ltmp26
	.uleb128 .Ltmp27-.Lfunc_begin4          #     jumps to .Ltmp27
	.byte	0                               #   On action: cleanup
	.uleb128 .Ltmp28-.Lfunc_begin4          # >> Call Site 3 <<
	.uleb128 .Ltmp29-.Ltmp28                #   Call between .Ltmp28 and .Ltmp29
	.uleb128 .Ltmp30-.Lfunc_begin4          #     jumps to .Ltmp30
	.byte	0                               #   On action: cleanup
	.uleb128 .Ltmp31-.Lfunc_begin4          # >> Call Site 4 <<
	.uleb128 .Ltmp32-.Ltmp31                #   Call between .Ltmp31 and .Ltmp32
	.uleb128 .Ltmp33-.Lfunc_begin4          #     jumps to .Ltmp33
	.byte	0                               #   On action: cleanup
	.uleb128 .Ltmp34-.Lfunc_begin4          # >> Call Site 5 <<
	.uleb128 .Ltmp35-.Ltmp34                #   Call between .Ltmp34 and .Ltmp35
	.uleb128 .Ltmp36-.Lfunc_begin4          #     jumps to .Ltmp36
	.byte	0                               #   On action: cleanup
	.uleb128 .Ltmp37-.Lfunc_begin4          # >> Call Site 6 <<
	.uleb128 .Ltmp38-.Ltmp37                #   Call between .Ltmp37 and .Ltmp38
	.uleb128 .Ltmp39-.Lfunc_begin4          #     jumps to .Ltmp39
	.byte	0                               #   On action: cleanup
	.uleb128 .Ltmp38-.Lfunc_begin4          # >> Call Site 7 <<
	.uleb128 .Lfunc_end4-.Ltmp38            #   Call between .Ltmp38 and .Lfunc_end4
	.byte	0                               #     has no landing pad
	.byte	0                               #   On action: cleanup
.Lcst_end0:
	.p2align	2
                                        # -- End function
	.section	.text._ZN5TimerC2ERKNSt7__cxx1112basic_stringIcSt11char_traitsIcESaIcEEE,"axG",@progbits,_ZN5TimerC2ERKNSt7__cxx1112basic_stringIcSt11char_traitsIcESaIcEEE,comdat
	.weak	_ZN5TimerC2ERKNSt7__cxx1112basic_stringIcSt11char_traitsIcESaIcEEE # -- Begin function _ZN5TimerC2ERKNSt7__cxx1112basic_stringIcSt11char_traitsIcESaIcEEE
	.p2align	4, 0x90
	.type	_ZN5TimerC2ERKNSt7__cxx1112basic_stringIcSt11char_traitsIcESaIcEEE,@function
_ZN5TimerC2ERKNSt7__cxx1112basic_stringIcSt11char_traitsIcESaIcEEE: # 
.Lfunc_begin5:
	.file	42 "/home/mirco/Scrivania/PhD/1-Programming/VectorMacros" "utils/Timer.hh"
	.loc	42 10 0                         # utils/Timer.hh:10:0
	.cfi_startproc
# %bb.0:
	pushq	%rbp
	.cfi_def_cfa_offset 16
	.cfi_offset %rbp, -16
	movq	%rsp, %rbp
	.cfi_def_cfa_register %rbp
	subq	$32, %rsp
	movq	%rdi, -8(%rbp)
	movq	%rsi, -16(%rbp)
	movq	-8(%rbp), %rdi
	movq	%rdi, -24(%rbp)                 # 8-byte Spill
.Ltmp68:
	.loc	42 8 14 prologue_end            # utils/Timer.hh:8:14
	movq	-16(%rbp), %rsi
	.loc	42 8 7 is_stmt 0                # utils/Timer.hh:8:7
	callq	_ZNSt7__cxx1112basic_stringIcSt11char_traitsIcESaIcEEC1ERKS4_
	.loc	42 9 15 is_stmt 1               # utils/Timer.hh:9:15
	callq	clock
	movq	%rax, %rcx
	movq	-24(%rbp), %rax                 # 8-byte Reload
	.loc	42 9 7 is_stmt 0                # utils/Timer.hh:9:7
	movq	%rcx, 32(%rax)
	.loc	42 11 5 is_stmt 1               # utils/Timer.hh:11:5
	addq	$32, %rsp
	popq	%rbp
	.cfi_def_cfa %rsp, 8
	retq
.Ltmp69:
.Lfunc_end5:
	.size	_ZN5TimerC2ERKNSt7__cxx1112basic_stringIcSt11char_traitsIcESaIcEEE, .Lfunc_end5-_ZN5TimerC2ERKNSt7__cxx1112basic_stringIcSt11char_traitsIcESaIcEEE
	.cfi_endproc
	.file	43 "/usr/lib/gcc/x86_64-linux-gnu/7.5.0/../../../../include/c++/7.5.0/bits" "stringfwd.h"
                                        # -- End function
	.section	.rodata.cst8,"aM",@progbits,8
	.p2align	3                               # -- Begin function _ZN5TimerD2Ev
.LCPI6_0:
	.quad	0x3eb0c6f7a0b5ed8d              #  9.9999999999999995E-7
.LCPI6_1:
	.quad	0x408f400000000000              #  1000
	.section	.text._ZN5TimerD2Ev,"axG",@progbits,_ZN5TimerD2Ev,comdat
	.weak	_ZN5TimerD2Ev
	.p2align	4, 0x90
	.type	_ZN5TimerD2Ev,@function
_ZN5TimerD2Ev:                          # 
.Lfunc_begin6:
	.loc	42 13 0                         # utils/Timer.hh:13:0
	.cfi_startproc
	.cfi_personality 3, __gxx_personality_v0
	.cfi_lsda 3, .Lexception1
# %bb.0:
	pushq	%rbp
	.cfi_def_cfa_offset 16
	.cfi_offset %rbp, -16
	movq	%rsp, %rbp
	.cfi_def_cfa_register %rbp
	subq	$80, %rsp
	movq	%rdi, -8(%rbp)
	movq	-8(%rbp), %rax
	movq	%rax, -48(%rbp)                 # 8-byte Spill
.Ltmp81:
	.loc	42 14 32 prologue_end           # utils/Timer.hh:14:32
	callq	clock
	movq	-48(%rbp), %rsi                 # 8-byte Reload
	.loc	42 14 47 is_stmt 0              # utils/Timer.hh:14:47
	movq	32(%rsi), %rcx
	.loc	42 14 45                        # utils/Timer.hh:14:45
	subq	%rcx, %rax
                                        # implicit-def: $xmm0
	.loc	42 14 32                        # utils/Timer.hh:14:32
	vcvtsi2sd	%rax, %xmm0, %xmm0
	vmovsd	.LCPI6_0(%rip), %xmm1           # xmm1 = mem[0],zero
	.loc	42 14 55                        # utils/Timer.hh:14:55
	vmulsd	%xmm1, %xmm0, %xmm0
	.loc	42 14 14                        # utils/Timer.hh:14:14
	vmovsd	%xmm0, -16(%rbp)
.Ltmp70:
	.loc	42 15 17 is_stmt 1              # utils/Timer.hh:15:17
	movl	$_ZSt4cout, %edi
	callq	_ZStlsIcSt11char_traitsIcESaIcEERSt13basic_ostreamIT_T0_ES7_RKNSt7__cxx1112basic_stringIS4_S5_T1_EE
	movq	%rax, %rcx
.Ltmp71:
	movq	%rcx, -40(%rbp)                 # 8-byte Spill
	jmp	.LBB6_1
.LBB6_1:
.Ltmp72:
	movq	-40(%rbp), %rdi                 # 8-byte Reload
	.loc	42 15 26 is_stmt 0              # utils/Timer.hh:15:26
	movl	$.L.str.3, %esi
	callq	_ZStlsISt11char_traitsIcEERSt13basic_ostreamIcT_ES5_PKc
	movq	%rax, %rcx
.Ltmp73:
	movq	%rcx, -56(%rbp)                 # 8-byte Spill
	jmp	.LBB6_2
.LBB6_2:
	movq	-56(%rbp), %rdi                 # 8-byte Reload
	.loc	42 15 41                        # utils/Timer.hh:15:41
	vmovsd	-16(%rbp), %xmm0                # xmm0 = mem[0],zero
	vmovsd	.LCPI6_1(%rip), %xmm1           # xmm1 = mem[0],zero
	.loc	42 15 49                        # utils/Timer.hh:15:49
	vmulsd	%xmm1, %xmm0, %xmm0
	.loc	42 15 41                        # utils/Timer.hh:15:41
	vcvttsd2si	%xmm0, %esi
.Ltmp74:
	.loc	42 15 34                        # utils/Timer.hh:15:34
	callq	_ZNSolsEi
	movq	%rax, %rcx
.Ltmp75:
	movq	%rcx, -64(%rbp)                 # 8-byte Spill
	jmp	.LBB6_3
.LBB6_3:
.Ltmp76:
	movq	-64(%rbp), %rdi                 # 8-byte Reload
	.loc	42 15 57                        # utils/Timer.hh:15:57
	movl	$.L.str.4, %esi
	callq	_ZStlsISt11char_traitsIcEERSt13basic_ostreamIcT_ES5_PKc
	movq	%rax, %rcx
.Ltmp77:
	movq	%rcx, -72(%rbp)                 # 8-byte Spill
	jmp	.LBB6_4
.LBB6_4:
.Ltmp78:
	movq	-72(%rbp), %rdi                 # 8-byte Reload
	.loc	42 15 65                        # utils/Timer.hh:15:65
	movl	$_ZSt4endlIcSt11char_traitsIcEERSt13basic_ostreamIT_T0_ES6_, %esi
	callq	_ZNSolsEPFRSoS_E
                                        # kill: def $rcx killed $rax
.Ltmp79:
	jmp	.LBB6_5
.LBB6_5:
	movq	-48(%rbp), %rdi                 # 8-byte Reload
	.loc	42 16 5 is_stmt 1               # utils/Timer.hh:16:5
	callq	_ZNSt7__cxx1112basic_stringIcSt11char_traitsIcESaIcEED1Ev
.Ltmp82:
	.loc	42 16 5 is_stmt 0               # utils/Timer.hh:16:5
	addq	$80, %rsp
	popq	%rbp
	.cfi_def_cfa %rsp, 8
	retq
.LBB6_6:
	.cfi_def_cfa %rbp, 16
.Ltmp80:
	movq	-48(%rbp), %rdi                 # 8-byte Reload
	movq	%rax, %rcx
.Ltmp83:
	.loc	42 16 5                         # utils/Timer.hh:16:5
	movl	%edx, %eax
	movq	%rcx, -24(%rbp)
	movl	%eax, -28(%rbp)
	callq	_ZNSt7__cxx1112basic_stringIcSt11char_traitsIcESaIcEED1Ev
.Ltmp84:
# %bb.7:
	.loc	42 16 5                         # utils/Timer.hh:16:5
	movq	-24(%rbp), %rdi
	callq	__cxa_call_unexpected
.Ltmp85:
.Lfunc_end6:
	.size	_ZN5TimerD2Ev, .Lfunc_end6-_ZN5TimerD2Ev
	.cfi_endproc
	.section	.gcc_except_table._ZN5TimerD2Ev,"aG",@progbits,_ZN5TimerD2Ev,comdat
	.p2align	2
GCC_except_table6:
.Lexception1:
	.byte	255                             # @LPStart Encoding = omit
	.byte	3                               # @TType Encoding = udata4
	.uleb128 .Lttbase0-.Lttbaseref0
.Lttbaseref0:
	.byte	1                               # Call site Encoding = uleb128
	.uleb128 .Lcst_end1-.Lcst_begin1
.Lcst_begin1:
	.uleb128 .Ltmp70-.Lfunc_begin6          # >> Call Site 1 <<
	.uleb128 .Ltmp79-.Ltmp70                #   Call between .Ltmp70 and .Ltmp79
	.uleb128 .Ltmp80-.Lfunc_begin6          #     jumps to .Ltmp80
	.byte	3                               #   On action: 2
	.uleb128 .Ltmp79-.Lfunc_begin6          # >> Call Site 2 <<
	.uleb128 .Lfunc_end6-.Ltmp79            #   Call between .Ltmp79 and .Lfunc_end6
	.byte	0                               #     has no landing pad
	.byte	0                               #   On action: cleanup
.Lcst_end1:
	.byte	0                               # >> Action Record 1 <<
                                        #   Cleanup
	.byte	0                               #   No further actions
	.byte	127                             # >> Action Record 2 <<
                                        #   Filter TypeInfo -1
	.byte	125                             #   Continue to action 1
	.p2align	2
.Lttbase0:
                                        # >> Filter TypeInfos <<
	.byte	0
	.p2align	2
                                        # -- End function
	.section	.text.startup,"ax",@progbits
	.p2align	4, 0x90                         # -- Begin function _GLOBAL__sub_I_add_scalar_256b.cpp
	.type	_GLOBAL__sub_I_add_scalar_256b.cpp,@function
_GLOBAL__sub_I_add_scalar_256b.cpp:     # 
.Lfunc_begin7:
	.loc	41 0 0 is_stmt 1                # intrinsic_functions/add_scalar_256b.cpp:0:0
	.cfi_startproc
# %bb.0:
	pushq	%rbp
	.cfi_def_cfa_offset 16
	.cfi_offset %rbp, -16
	movq	%rsp, %rbp
	.cfi_def_cfa_register %rbp
.Ltmp86:
	callq	__cxx_global_var_init
	popq	%rbp
	.cfi_def_cfa %rsp, 8
	retq
.Ltmp87:
.Lfunc_end7:
	.size	_GLOBAL__sub_I_add_scalar_256b.cpp, .Lfunc_end7-_GLOBAL__sub_I_add_scalar_256b.cpp
	.cfi_endproc
                                        # -- End function
	.type	_ZStL8__ioinit,@object          # 
	.local	_ZStL8__ioinit
	.comm	_ZStL8__ioinit,1,1
	.hidden	__dso_handle
	.type	.L.str,@object                  # 
	.section	.rodata.str1.1,"aMS",@progbits,1
.L.str:
	.asciz	"Please insert the size of the vector\n"
	.size	.L.str, 38

	.type	.L.str.1,@object                # 
.L.str.1:
	.asciz	"Naive"
	.size	.L.str.1, 6

	.type	.L.str.2,@object                # 
.L.str.2:
	.asciz	"Vectorized"
	.size	.L.str.2, 11

	.type	.L.str.3,@object                # 
.L.str.3:
	.asciz	": "
	.size	.L.str.3, 3

	.type	.L.str.4,@object                # 
.L.str.4:
	.asciz	"ms"
	.size	.L.str.4, 3

	.section	.init_array,"aw",@init_array
	.p2align	3
	.quad	_GLOBAL__sub_I_add_scalar_256b.cpp
	.section	".note.GNU-stack","",@progbits