	.file	"fma_256b.cpp"
	.text
.Ltext0:
	.section	.rodata
	.type	_ZStL19piecewise_construct, @object
	.size	_ZStL19piecewise_construct, 1
_ZStL19piecewise_construct:
	.zero	1
	.local	_ZStL8__ioinit
	.comm	_ZStL8__ioinit,1,1
	.section	.text._ZN5TimerC2ERKNSt7__cxx1112basic_stringIcSt11char_traitsIcESaIcEEE,"axG",@progbits,_ZN5TimerC5ERKNSt7__cxx1112basic_stringIcSt11char_traitsIcESaIcEEE,comdat
	.align 2
	.weak	_ZN5TimerC2ERKNSt7__cxx1112basic_stringIcSt11char_traitsIcESaIcEEE
	.type	_ZN5TimerC2ERKNSt7__cxx1112basic_stringIcSt11char_traitsIcESaIcEEE, @function
_ZN5TimerC2ERKNSt7__cxx1112basic_stringIcSt11char_traitsIcESaIcEEE:
.LFB5827:
	.file 1 "utils/Timer.hh"
	.loc 1 7 3
	.cfi_startproc
	endbr64
	pushq	%rbp
	.cfi_def_cfa_offset 16
	.cfi_offset 6, -16
	movq	%rsp, %rbp
	.cfi_def_cfa_register 6
	subq	$16, %rsp
	movq	%rdi, -8(%rbp)
	movq	%rsi, -16(%rbp)
.LBB7:
	.loc 1 9 27
	movq	-8(%rbp), %rax
	movq	-16(%rbp), %rdx
	movq	%rdx, %rsi
	movq	%rax, %rdi
	call	_ZNSt7__cxx1112basic_stringIcSt11char_traitsIcESaIcEEC1ERKS4_@PLT
	.loc 1 9 25
	call	clock@PLT
	.loc 1 9 27
	movq	-8(%rbp), %rdx
	movq	%rax, 32(%rdx)
.LBE7:
	.loc 1 11 5
	nop
	leave
	.cfi_def_cfa 7, 8
	ret
	.cfi_endproc
.LFE5827:
	.size	_ZN5TimerC2ERKNSt7__cxx1112basic_stringIcSt11char_traitsIcESaIcEEE, .-_ZN5TimerC2ERKNSt7__cxx1112basic_stringIcSt11char_traitsIcESaIcEEE
	.weak	_ZN5TimerC1ERKNSt7__cxx1112basic_stringIcSt11char_traitsIcESaIcEEE
	.set	_ZN5TimerC1ERKNSt7__cxx1112basic_stringIcSt11char_traitsIcESaIcEEE,_ZN5TimerC2ERKNSt7__cxx1112basic_stringIcSt11char_traitsIcESaIcEEE
	.section	.rodata
.LC1:
	.string	": "
.LC3:
	.string	"ms"
	.section	.text._ZN5TimerD2Ev,"axG",@progbits,_ZN5TimerD5Ev,comdat
	.align 2
	.weak	_ZN5TimerD2Ev
	.type	_ZN5TimerD2Ev, @function
_ZN5TimerD2Ev:
.LFB5830:
	.loc 1 12 3
	.cfi_startproc
	.cfi_personality 0x9b,DW.ref.__gxx_personality_v0
	.cfi_lsda 0x1b,.LLSDA5830
	endbr64
	pushq	%rbp
	.cfi_def_cfa_offset 16
	.cfi_offset 6, -16
	movq	%rsp, %rbp
	.cfi_def_cfa_register 6
	subq	$32, %rsp
	movq	%rdi, -24(%rbp)
.LBB8:
.LBB9:
	.loc 1 14 42
	call	clock@PLT
	.loc 1 14 47
	movq	-24(%rbp), %rdx
	movq	32(%rdx), %rdx
	.loc 1 14 45
	subq	%rdx, %rax
	.loc 1 14 25
	vcvtsi2sdq	%rax, %xmm0, %xmm0
	.loc 1 14 79
	vmovsd	.LC0(%rip), %xmm1
	vdivsd	%xmm1, %xmm0, %xmm0
	vmovsd	%xmm0, -8(%rbp)
	.loc 1 15 20
	movq	-24(%rbp), %rax
	.loc 1 15 29
	movq	%rax, %rsi
	leaq	_ZSt4cout(%rip), %rdi
	call	_ZStlsIcSt11char_traitsIcESaIcEERSt13basic_ostreamIT_T0_ES7_RKNSt7__cxx1112basic_stringIS4_S5_T1_EE@PLT
	leaq	.LC1(%rip), %rsi
	movq	%rax, %rdi
	call	_ZStlsISt11char_traitsIcEERSt13basic_ostreamIcT_ES5_PKc@PLT
	movq	%rax, %rdx
	.loc 1 15 49
	vmovsd	-8(%rbp), %xmm1
	vmovsd	.LC2(%rip), %xmm0
	vmulsd	%xmm0, %xmm1, %xmm0
	.loc 1 15 60
	vcvttsd2sil	%xmm0, %eax
	movl	%eax, %esi
	movq	%rdx, %rdi
	call	_ZNSolsEi@PLT
	leaq	.LC3(%rip), %rsi
	movq	%rax, %rdi
	call	_ZStlsISt11char_traitsIcEERSt13basic_ostreamIcT_ES5_PKc@PLT
	movq	%rax, %rdx
	.loc 1 15 73
	movq	_ZSt4endlIcSt11char_traitsIcEERSt13basic_ostreamIT_T0_ES6_@GOTPCREL(%rip), %rax
	movq	%rax, %rsi
	movq	%rdx, %rdi
	call	_ZNSolsEPFRSoS_E@PLT
.LBE9:
	.loc 1 13 5
	movq	-24(%rbp), %rax
	movq	%rax, %rdi
	call	_ZNSt7__cxx1112basic_stringIcSt11char_traitsIcESaIcEED1Ev@PLT
.LBE8:
	.loc 1 16 5
	nop
	leave
	.cfi_def_cfa 7, 8
	ret
	.cfi_endproc
.LFE5830:
	.globl	__gxx_personality_v0
	.section	.gcc_except_table._ZN5TimerD2Ev,"aG",@progbits,_ZN5TimerD5Ev,comdat
.LLSDA5830:
	.byte	0xff
	.byte	0xff
	.byte	0x1
	.uleb128 .LLSDACSE5830-.LLSDACSB5830
.LLSDACSB5830:
.LLSDACSE5830:
	.section	.text._ZN5TimerD2Ev,"axG",@progbits,_ZN5TimerD5Ev,comdat
	.size	_ZN5TimerD2Ev, .-_ZN5TimerD2Ev
	.weak	_ZN5TimerD1Ev
	.set	_ZN5TimerD1Ev,_ZN5TimerD2Ev
	.text
	.globl	_Z5naivePfS_S_m
	.type	_Z5naivePfS_S_m, @function
_Z5naivePfS_S_m:
.LFB5832:
	.file 2 "intrinsic_functions/fma_256b.cpp"
	.loc 2 8 1
	.cfi_startproc
	endbr64
	pushq	%rbp
	.cfi_def_cfa_offset 16
	.cfi_offset 6, -16
	movq	%rsp, %rbp
	.cfi_def_cfa_register 6
	movq	%rdi, -24(%rbp)
	movq	%rsi, -32(%rbp)
	movq	%rdx, -40(%rbp)
	movq	%rcx, -48(%rbp)
.LBB10:
	.loc 2 9 14
	movl	$0, -4(%rbp)
.L5:
	.loc 2 9 21 discriminator 3
	movl	-4(%rbp), %eax
	cltq
	.loc 2 9 23 discriminator 3
	cmpq	%rax, -48(%rbp)
	jbe	.L6
	.loc 2 11 14 discriminator 2
	movl	-4(%rbp), %eax
	cltq
	leaq	0(,%rax,4), %rdx
	movq	-40(%rbp), %rax
	addq	%rdx, %rax
	vmovss	(%rax), %xmm1
	.loc 2 11 19 discriminator 2
	movl	-4(%rbp), %eax
	cltq
	.loc 2 11 20 discriminator 2
	leaq	0(,%rax,4), %rdx
	movq	-24(%rbp), %rax
	addq	%rdx, %rax
	vmovss	(%rax), %xmm2
	.loc 2 11 26 discriminator 2
	movl	-4(%rbp), %eax
	cltq
	.loc 2 11 27 discriminator 2
	leaq	0(,%rax,4), %rdx
	movq	-32(%rbp), %rax
	addq	%rdx, %rax
	vmovss	(%rax), %xmm0
	.loc 2 11 22 discriminator 2
	vmulss	%xmm0, %xmm2, %xmm0
	.loc 2 11 14 discriminator 2
	movl	-4(%rbp), %eax
	cltq
	leaq	0(,%rax,4), %rdx
	movq	-40(%rbp), %rax
	addq	%rdx, %rax
	vaddss	%xmm0, %xmm1, %xmm0
	vmovss	%xmm0, (%rax)
	.loc 2 9 5 discriminator 2
	incl	-4(%rbp)
	jmp	.L5
.L6:
.LBE10:
	.loc 2 13 1
	nop
	popq	%rbp
	.cfi_def_cfa 7, 8
	ret
	.cfi_endproc
.LFE5832:
	.size	_Z5naivePfS_S_m, .-_Z5naivePfS_S_m
	.globl	_Z10vectorizedPfS_S_m
	.type	_Z10vectorizedPfS_S_m, @function
_Z10vectorizedPfS_S_m:
.LFB5833:
	.loc 2 16 1
	.cfi_startproc
	endbr64
	pushq	%rbp
	.cfi_def_cfa_offset 16
	.cfi_offset 6, -16
	movq	%rsp, %rbp
	.cfi_def_cfa_register 6
	andq	$-32, %rsp
	subq	$72, %rsp
	movq	%rdi, -96(%rsp)
	movq	%rsi, -104(%rsp)
	movq	%rdx, -112(%rsp)
	movq	%rcx, -120(%rsp)
	.loc 2 17 20
	movq	-120(%rsp), %rax
	shrq	$3, %rax
	movq	%rax, -72(%rsp)
.LBB11:
	.loc 2 19 14
	movl	$0, -76(%rsp)
.L10:
	.loc 2 19 21 discriminator 3
	movl	-76(%rsp), %eax
	cltq
	.loc 2 19 23 discriminator 3
	cmpq	%rax, -72(%rsp)
	jbe	.L11
	.loc 2 21 24 discriminator 2
	movq	-112(%rsp), %rax
	vmovaps	(%rax), %ymm0
	movq	-104(%rsp), %rax
	vmovaps	(%rax), %ymm1
	movq	-96(%rsp), %rax
	vmovaps	(%rax), %ymm2
	vmovaps	%ymm2, -24(%rsp)
	vmovaps	%ymm1, 8(%rsp)
	vmovaps	%ymm0, 40(%rsp)
.LBB12:
.LBB13:
	.file 3 "/usr/lib/gcc/x86_64-linux-gnu/9/include/fmaintrin.h"
	.loc 3 65 10 discriminator 2
	vmovaps	8(%rsp), %ymm1
	vmovaps	40(%rsp), %ymm0
	vfmadd231ps	-24(%rsp), %ymm1, %ymm0
	.loc 3 66 57 discriminator 2
	nop
	movq	-112(%rsp), %rax
	movq	%rax, -64(%rsp)
	vmovaps	%ymm0, -56(%rsp)
.LBE13:
.LBE12:
.LBB14:
.LBB15:
	.file 4 "/usr/lib/gcc/x86_64-linux-gnu/9/include/avxintrin.h"
	.loc 4 880 18 discriminator 2
	movq	-64(%rsp), %rax
	vmovaps	-56(%rsp), %ymm0
	vmovaps	%ymm0, (%rax)
	.loc 4 881 1 discriminator 2
	nop
.LBE15:
.LBE14:
	.loc 2 19 5 discriminator 2
	incl	-76(%rsp)
	.loc 2 19 40 discriminator 2
	addq	$32, -96(%rsp)
	.loc 2 19 46 discriminator 2
	addq	$32, -104(%rsp)
	.loc 2 19 52 discriminator 2
	addq	$32, -112(%rsp)
	.loc 2 19 5 discriminator 2
	jmp	.L10
.L11:
.LBE11:
	.loc 2 23 1
	nop
	leave
	.cfi_def_cfa 7, 8
	ret
	.cfi_endproc
.LFE5833:
	.size	_Z10vectorizedPfS_S_m, .-_Z10vectorizedPfS_S_m
	.globl	_Z16vectorized_macroPfS_S_m
	.type	_Z16vectorized_macroPfS_S_m, @function
_Z16vectorized_macroPfS_S_m:
.LFB5834:
	.loc 2 26 1
	.cfi_startproc
	endbr64
	pushq	%rbp
	.cfi_def_cfa_offset 16
	.cfi_offset 6, -16
	movq	%rsp, %rbp
	.cfi_def_cfa_register 6
	andq	$-32, %rsp
	movq	%rdi, -24(%rsp)
	movq	%rsi, -32(%rsp)
	movq	%rdx, -40(%rsp)
	movq	%rcx, -48(%rsp)
	.loc 2 27 20
	movq	-48(%rsp), %rax
	shrq	$3, %rax
	movq	%rax, -8(%rsp)
.LBB16:
	.loc 2 30 14
	movl	$0, -12(%rsp)
.L14:
	.loc 2 30 21 discriminator 3
	movl	-12(%rsp), %eax
	cltq
	.loc 2 30 23 discriminator 3
	cmpq	%rax, -8(%rsp)
	jbe	.L15
	.loc 2 32 9 discriminator 2
	movq	-24(%rsp), %rax
	vmovaps	(%rax), %ymm1
	movq	-32(%rsp), %rax
	vmovaps	(%rax), %ymm2
	movq	-40(%rsp), %rax
	vmovaps	(%rax), %ymm0
#APP
# 32 "intrinsic_functions/fma_256b.cpp" 1
	vfmadd231ps %ymm1,%ymm2,%ymm0
# 0 "" 2
#NO_APP
	movq	-40(%rsp), %rax
	vmovaps	%ymm0, (%rax)
	.loc 2 30 5 discriminator 2
	incl	-12(%rsp)
	.loc 2 30 40 discriminator 2
	addq	$32, -24(%rsp)
	.loc 2 30 46 discriminator 2
	addq	$32, -32(%rsp)
	.loc 2 30 52 discriminator 2
	addq	$32, -40(%rsp)
	.loc 2 30 5 discriminator 2
	jmp	.L14
.L15:
.LBE16:
	.loc 2 34 1
	nop
	leave
	.cfi_def_cfa 7, 8
	ret
	.cfi_endproc
.LFE5834:
	.size	_Z16vectorized_macroPfS_S_m, .-_Z16vectorized_macroPfS_S_m
	.section	.rodata
	.align 8
.LC4:
	.string	"Please insert the size of the vector\n"
.LC8:
	.string	"Naive"
.LC10:
	.string	"Vectorized"
.LC11:
	.string	"Vectorized (Macro)"
	.text
	.globl	main
	.type	main, @function
main:
.LFB5835:
	.loc 2 37 1
	.cfi_startproc
	.cfi_personality 0x9b,DW.ref.__gxx_personality_v0
	.cfi_lsda 0x1b,.LLSDA5835
	endbr64
	pushq	%rbp
	.cfi_def_cfa_offset 16
	.cfi_offset 6, -16
	movq	%rsp, %rbp
	.cfi_def_cfa_register 6
	pushq	%rbx
	subq	$152, %rsp
	.cfi_offset 3, -24
	movl	%edi, -148(%rbp)
	movq	%rsi, -160(%rbp)
	.loc 2 37 1
	movq	%fs:40, %rax
	movq	%rax, -24(%rbp)
	xorl	%eax, %eax
	.loc 2 38 5
	cmpl	$2, -148(%rbp)
	je	.L17
	.loc 2 40 22
	leaq	.LC4(%rip), %rsi
	leaq	_ZSt4cerr(%rip), %rdi
.LEHB0:
	call	_ZStlsISt11char_traitsIcEERSt13basic_ostreamIcT_ES5_PKc@PLT
.LEHE0:
	.loc 2 41 16
	movl	$1, %eax
	jmp	.L25
.L17:
	.loc 2 43 35
	movq	-160(%rbp), %rax
	addq	$8, %rax
	.loc 2 43 28
	movq	(%rax), %rax
	movq	%rax, %rdi
	call	atoi@PLT
	.loc 2 43 20
	cltq
	movq	%rax, -104(%rbp)
	.loc 2 48 19
	movq	-104(%rbp), %rax
	leaq	0(,%rax,4), %rdx
	leaq	-128(%rbp), %rax
	movl	$32, %esi
	movq	%rax, %rdi
	call	posix_memalign@PLT
	.loc 2 49 19
	movq	-104(%rbp), %rax
	leaq	0(,%rax,4), %rdx
	leaq	-120(%rbp), %rax
	movl	$32, %esi
	movq	%rax, %rdi
	call	posix_memalign@PLT
	.loc 2 50 19
	movq	-104(%rbp), %rax
	leaq	0(,%rax,4), %rdx
	leaq	-112(%rbp), %rax
	movl	$32, %esi
	movq	%rax, %rdi
	call	posix_memalign@PLT
.LBB17:
	.loc 2 52 14
	movl	$0, -140(%rbp)
.L20:
	.loc 2 52 21 discriminator 3
	movl	-140(%rbp), %eax
	cltq
	.loc 2 52 23 discriminator 3
	cmpq	%rax, -104(%rbp)
	jbe	.L19
	.loc 2 54 12 discriminator 2
	movq	-128(%rbp), %rdx
	.loc 2 54 11 discriminator 2
	movl	-140(%rbp), %eax
	cltq
	.loc 2 54 12 discriminator 2
	salq	$2, %rax
	addq	%rdx, %rax
	.loc 2 54 14 discriminator 2
	vmovss	.LC5(%rip), %xmm0
	vmovss	%xmm0, (%rax)
	.loc 2 55 12 discriminator 2
	movq	-120(%rbp), %rdx
	.loc 2 55 11 discriminator 2
	movl	-140(%rbp), %eax
	cltq
	.loc 2 55 12 discriminator 2
	salq	$2, %rax
	addq	%rdx, %rax
	.loc 2 55 14 discriminator 2
	vmovss	.LC6(%rip), %xmm0
	vmovss	%xmm0, (%rax)
	.loc 2 56 12 discriminator 2
	movq	-112(%rbp), %rdx
	.loc 2 56 11 discriminator 2
	movl	-140(%rbp), %eax
	cltq
	.loc 2 56 12 discriminator 2
	salq	$2, %rax
	addq	%rdx, %rax
	.loc 2 56 14 discriminator 2
	vxorps	%xmm0, %xmm0, %xmm0
	vmovss	%xmm0, (%rax)
	.loc 2 52 5 discriminator 2
	incl	-140(%rbp)
	jmp	.L20
.L19:
.LBE17:
.LBB18:
	.loc 2 60 9
	leaq	-141(%rbp), %rax
	movq	%rax, %rdi
	call	_ZNSaIcEC1Ev@PLT
	leaq	-141(%rbp), %rdx
	leaq	-96(%rbp), %rax
	leaq	.LC8(%rip), %rsi
	movq	%rax, %rdi
.LEHB1:
	call	_ZNSt7__cxx1112basic_stringIcSt11char_traitsIcESaIcEEC1EPKcRKS3_@PLT
.LEHE1:
	.loc 2 60 9 is_stmt 0 discriminator 1
	leaq	-96(%rbp), %rdx
	leaq	-64(%rbp), %rax
	movq	%rdx, %rsi
	movq	%rax, %rdi
.LEHB2:
	call	_ZN5TimerC1ERKNSt7__cxx1112basic_stringIcSt11char_traitsIcESaIcEEE
.LEHE2:
	leaq	-96(%rbp), %rax
	movq	%rax, %rdi
	call	_ZNSt7__cxx1112basic_stringIcSt11char_traitsIcESaIcEED1Ev@PLT
	leaq	-141(%rbp), %rax
	movq	%rax, %rdi
	call	_ZNSaIcED1Ev@PLT
	.loc 2 61 14 is_stmt 1
	movq	-112(%rbp), %rdx
	movq	-120(%rbp), %rsi
	movq	-128(%rbp), %rax
	movq	-104(%rbp), %rcx
	movq	%rax, %rdi
	call	_Z5naivePfS_S_m
	.loc 2 60 9
	leaq	-64(%rbp), %rax
	movq	%rax, %rdi
	call	_ZN5TimerD1Ev
.LBE18:
.LBB19:
	.loc 2 64 14
	movl	$0, -136(%rbp)
.L22:
	.loc 2 64 21 discriminator 3
	movl	-136(%rbp), %eax
	cltq
	.loc 2 64 23 discriminator 3
	cmpq	%rax, -104(%rbp)
	jbe	.L21
	.loc 2 66 12 discriminator 2
	movq	-128(%rbp), %rdx
	.loc 2 66 11 discriminator 2
	movl	-136(%rbp), %eax
	cltq
	.loc 2 66 12 discriminator 2
	salq	$2, %rax
	addq	%rdx, %rax
	.loc 2 66 14 discriminator 2
	vmovss	.LC5(%rip), %xmm0
	vmovss	%xmm0, (%rax)
	.loc 2 67 12 discriminator 2
	movq	-120(%rbp), %rdx
	.loc 2 67 11 discriminator 2
	movl	-136(%rbp), %eax
	cltq
	.loc 2 67 12 discriminator 2
	salq	$2, %rax
	addq	%rdx, %rax
	.loc 2 67 14 discriminator 2
	vmovss	.LC9(%rip), %xmm0
	vmovss	%xmm0, (%rax)
	.loc 2 68 12 discriminator 2
	movq	-112(%rbp), %rdx
	.loc 2 68 11 discriminator 2
	movl	-136(%rbp), %eax
	cltq
	.loc 2 68 12 discriminator 2
	salq	$2, %rax
	addq	%rdx, %rax
	.loc 2 68 14 discriminator 2
	vxorps	%xmm0, %xmm0, %xmm0
	vmovss	%xmm0, (%rax)
	.loc 2 64 5 discriminator 2
	incl	-136(%rbp)
	jmp	.L22
.L21:
.LBE19:
.LBB20:
	.loc 2 72 9
	leaq	-141(%rbp), %rax
	movq	%rax, %rdi
	call	_ZNSaIcEC1Ev@PLT
	leaq	-141(%rbp), %rdx
	leaq	-96(%rbp), %rax
	leaq	.LC10(%rip), %rsi
	movq	%rax, %rdi
.LEHB3:
	call	_ZNSt7__cxx1112basic_stringIcSt11char_traitsIcESaIcEEC1EPKcRKS3_@PLT
.LEHE3:
	.loc 2 72 9 is_stmt 0 discriminator 1
	leaq	-96(%rbp), %rdx
	leaq	-64(%rbp), %rax
	movq	%rdx, %rsi
	movq	%rax, %rdi
.LEHB4:
	call	_ZN5TimerC1ERKNSt7__cxx1112basic_stringIcSt11char_traitsIcESaIcEEE
.LEHE4:
	leaq	-96(%rbp), %rax
	movq	%rax, %rdi
	call	_ZNSt7__cxx1112basic_stringIcSt11char_traitsIcESaIcEED1Ev@PLT
	leaq	-141(%rbp), %rax
	movq	%rax, %rdi
	call	_ZNSaIcED1Ev@PLT
	.loc 2 73 19 is_stmt 1
	movq	-112(%rbp), %rdx
	movq	-120(%rbp), %rsi
	movq	-128(%rbp), %rax
	movq	-104(%rbp), %rcx
	movq	%rax, %rdi
	call	_Z10vectorizedPfS_S_m
	.loc 2 72 9
	leaq	-64(%rbp), %rax
	movq	%rax, %rdi
	call	_ZN5TimerD1Ev
.LBE20:
.LBB21:
	.loc 2 76 14
	movl	$0, -132(%rbp)
.L24:
	.loc 2 76 21 discriminator 3
	movl	-132(%rbp), %eax
	cltq
	.loc 2 76 23 discriminator 3
	cmpq	%rax, -104(%rbp)
	jbe	.L23
	.loc 2 78 12 discriminator 2
	movq	-128(%rbp), %rdx
	.loc 2 78 11 discriminator 2
	movl	-132(%rbp), %eax
	cltq
	.loc 2 78 12 discriminator 2
	salq	$2, %rax
	addq	%rdx, %rax
	.loc 2 78 14 discriminator 2
	vmovss	.LC5(%rip), %xmm0
	vmovss	%xmm0, (%rax)
	.loc 2 79 12 discriminator 2
	movq	-120(%rbp), %rdx
	.loc 2 79 11 discriminator 2
	movl	-132(%rbp), %eax
	cltq
	.loc 2 79 12 discriminator 2
	salq	$2, %rax
	addq	%rdx, %rax
	.loc 2 79 14 discriminator 2
	vmovss	.LC9(%rip), %xmm0
	vmovss	%xmm0, (%rax)
	.loc 2 80 12 discriminator 2
	movq	-112(%rbp), %rdx
	.loc 2 80 11 discriminator 2
	movl	-132(%rbp), %eax
	cltq
	.loc 2 80 12 discriminator 2
	salq	$2, %rax
	addq	%rdx, %rax
	.loc 2 80 14 discriminator 2
	vxorps	%xmm0, %xmm0, %xmm0
	vmovss	%xmm0, (%rax)
	.loc 2 76 5 discriminator 2
	incl	-132(%rbp)
	jmp	.L24
.L23:
.LBE21:
.LBB22:
	.loc 2 84 9
	leaq	-141(%rbp), %rax
	movq	%rax, %rdi
	call	_ZNSaIcEC1Ev@PLT
	leaq	-141(%rbp), %rdx
	leaq	-96(%rbp), %rax
	leaq	.LC11(%rip), %rsi
	movq	%rax, %rdi
.LEHB5:
	call	_ZNSt7__cxx1112basic_stringIcSt11char_traitsIcESaIcEEC1EPKcRKS3_@PLT
.LEHE5:
	.loc 2 84 9 is_stmt 0 discriminator 1
	leaq	-96(%rbp), %rdx
	leaq	-64(%rbp), %rax
	movq	%rdx, %rsi
	movq	%rax, %rdi
.LEHB6:
	call	_ZN5TimerC1ERKNSt7__cxx1112basic_stringIcSt11char_traitsIcESaIcEEE
.LEHE6:
	leaq	-96(%rbp), %rax
	movq	%rax, %rdi
	call	_ZNSt7__cxx1112basic_stringIcSt11char_traitsIcESaIcEED1Ev@PLT
	leaq	-141(%rbp), %rax
	movq	%rax, %rdi
	call	_ZNSaIcED1Ev@PLT
	.loc 2 85 25 is_stmt 1
	movq	-112(%rbp), %rdx
	movq	-120(%rbp), %rsi
	movq	-128(%rbp), %rax
	movq	-104(%rbp), %rcx
	movq	%rax, %rdi
	call	_Z16vectorized_macroPfS_S_m
	.loc 2 84 9
	leaq	-64(%rbp), %rax
	movq	%rax, %rdi
	call	_ZN5TimerD1Ev
.LBE22:
	.loc 2 94 12
	movl	$0, %eax
.L25:
	.loc 2 95 1 discriminator 1
	movq	-24(%rbp), %rcx
	xorq	%fs:40, %rcx
	je	.L32
	jmp	.L39
.L34:
	endbr64
	movq	%rax, %rbx
.LBB23:
	leaq	-96(%rbp), %rax
	movq	%rax, %rdi
	call	_ZNSt7__cxx1112basic_stringIcSt11char_traitsIcESaIcEED1Ev@PLT
	jmp	.L27
.L33:
	endbr64
	movq	%rax, %rbx
.L27:
	leaq	-141(%rbp), %rax
	movq	%rax, %rdi
	call	_ZNSaIcED1Ev@PLT
	movq	%rbx, %rax
	movq	%rax, %rdi
.LEHB7:
	call	_Unwind_Resume@PLT
.L36:
	endbr64
	movq	%rax, %rbx
.LBE23:
.LBB24:
	leaq	-96(%rbp), %rax
	movq	%rax, %rdi
	call	_ZNSt7__cxx1112basic_stringIcSt11char_traitsIcESaIcEED1Ev@PLT
	jmp	.L29
.L35:
	endbr64
	movq	%rax, %rbx
.L29:
	leaq	-141(%rbp), %rax
	movq	%rax, %rdi
	call	_ZNSaIcED1Ev@PLT
	movq	%rbx, %rax
	movq	%rax, %rdi
	call	_Unwind_Resume@PLT
.L38:
	endbr64
	movq	%rax, %rbx
.LBE24:
.LBB25:
	leaq	-96(%rbp), %rax
	movq	%rax, %rdi
	call	_ZNSt7__cxx1112basic_stringIcSt11char_traitsIcESaIcEED1Ev@PLT
	jmp	.L31
.L37:
	endbr64
	movq	%rax, %rbx
.L31:
	leaq	-141(%rbp), %rax
	movq	%rax, %rdi
	call	_ZNSaIcED1Ev@PLT
	movq	%rbx, %rax
	movq	%rax, %rdi
	call	_Unwind_Resume@PLT
.LEHE7:
.L39:
.LBE25:
	.loc 2 95 1 is_stmt 0
	call	__stack_chk_fail@PLT
.L32:
	addq	$152, %rsp
	popq	%rbx
	popq	%rbp
	.cfi_def_cfa 7, 8
	ret
	.cfi_endproc
.LFE5835:
	.section	.gcc_except_table,"a",@progbits
.LLSDA5835:
	.byte	0xff
	.byte	0xff
	.byte	0x1
	.uleb128 .LLSDACSE5835-.LLSDACSB5835
.LLSDACSB5835:
	.uleb128 .LEHB0-.LFB5835
	.uleb128 .LEHE0-.LEHB0
	.uleb128 0
	.uleb128 0
	.uleb128 .LEHB1-.LFB5835
	.uleb128 .LEHE1-.LEHB1
	.uleb128 .L33-.LFB5835
	.uleb128 0
	.uleb128 .LEHB2-.LFB5835
	.uleb128 .LEHE2-.LEHB2
	.uleb128 .L34-.LFB5835
	.uleb128 0
	.uleb128 .LEHB3-.LFB5835
	.uleb128 .LEHE3-.LEHB3
	.uleb128 .L35-.LFB5835
	.uleb128 0
	.uleb128 .LEHB4-.LFB5835
	.uleb128 .LEHE4-.LEHB4
	.uleb128 .L36-.LFB5835
	.uleb128 0
	.uleb128 .LEHB5-.LFB5835
	.uleb128 .LEHE5-.LEHB5
	.uleb128 .L37-.LFB5835
	.uleb128 0
	.uleb128 .LEHB6-.LFB5835
	.uleb128 .LEHE6-.LEHB6
	.uleb128 .L38-.LFB5835
	.uleb128 0
	.uleb128 .LEHB7-.LFB5835
	.uleb128 .LEHE7-.LEHB7
	.uleb128 0
	.uleb128 0
.LLSDACSE5835:
	.text
	.size	main, .-main
	.type	_Z41__static_initialization_and_destruction_0ii, @function
_Z41__static_initialization_and_destruction_0ii:
.LFB6363:
	.loc 2 95 1 is_stmt 1
	.cfi_startproc
	endbr64
	pushq	%rbp
	.cfi_def_cfa_offset 16
	.cfi_offset 6, -16
	movq	%rsp, %rbp
	.cfi_def_cfa_register 6
	subq	$16, %rsp
	movl	%edi, -4(%rbp)
	movl	%esi, -8(%rbp)
	.loc 2 95 1
	cmpl	$1, -4(%rbp)
	jne	.L42
	.loc 2 95 1 is_stmt 0 discriminator 1
	cmpl	$65535, -8(%rbp)
	jne	.L42
	.file 5 "/usr/include/c++/9/iostream"
	.loc 5 74 25 is_stmt 1
	leaq	_ZStL8__ioinit(%rip), %rdi
	call	_ZNSt8ios_base4InitC1Ev@PLT
	leaq	__dso_handle(%rip), %rdx
	leaq	_ZStL8__ioinit(%rip), %rsi
	movq	_ZNSt8ios_base4InitD1Ev@GOTPCREL(%rip), %rax
	movq	%rax, %rdi
	call	__cxa_atexit@PLT
.L42:
	.loc 2 95 1
	nop
	leave
	.cfi_def_cfa 7, 8
	ret
	.cfi_endproc
.LFE6363:
	.size	_Z41__static_initialization_and_destruction_0ii, .-_Z41__static_initialization_and_destruction_0ii
	.type	_GLOBAL__sub_I__Z5naivePfS_S_m, @function
_GLOBAL__sub_I__Z5naivePfS_S_m:
.LFB6364:
	.loc 2 95 1
	.cfi_startproc
	endbr64
	pushq	%rbp
	.cfi_def_cfa_offset 16
	.cfi_offset 6, -16
	movq	%rsp, %rbp
	.cfi_def_cfa_register 6
	.loc 2 95 1
	movl	$65535, %esi
	movl	$1, %edi
	call	_Z41__static_initialization_and_destruction_0ii
	popq	%rbp
	.cfi_def_cfa 7, 8
	ret
	.cfi_endproc
.LFE6364:
	.size	_GLOBAL__sub_I__Z5naivePfS_S_m, .-_GLOBAL__sub_I__Z5naivePfS_S_m
	.section	.init_array,"aw"
	.align 8
	.quad	_GLOBAL__sub_I__Z5naivePfS_S_m
	.section	.rodata
	.align 8
.LC0:
	.long	0
	.long	1093567616
	.align 8
.LC2:
	.long	0
	.long	1083129856
	.align 4
.LC5:
	.long	1073741824
	.align 4
.LC6:
	.long	1077936128
	.align 4
.LC9:
	.long	1090519040
	.text
.Letext0:
	.file 6 "/usr/include/c++/9/bits/basic_string.h"
	.file 7 "/usr/include/c++/9/bits/basic_string.tcc"
	.file 8 "/usr/include/c++/9/cwchar"
	.file 9 "/usr/include/c++/9/new"
	.file 10 "/usr/include/c++/9/bits/exception_ptr.h"
	.file 11 "/usr/include/x86_64-linux-gnu/c++/9/bits/c++config.h"
	.file 12 "/usr/include/c++/9/type_traits"
	.file 13 "/usr/include/c++/9/bits/cpp_type_traits.h"
	.file 14 "/usr/include/c++/9/bits/stl_pair.h"
	.file 15 "/usr/include/c++/9/bits/stl_iterator_base_types.h"
	.file 16 "/usr/include/c++/9/debug/debug.h"
	.file 17 "/usr/include/c++/9/bits/char_traits.h"
	.file 18 "/usr/include/c++/9/cstdint"
	.file 19 "/usr/include/c++/9/clocale"
	.file 20 "/usr/include/c++/9/bits/allocator.h"
	.file 21 "/usr/include/c++/9/cstdlib"
	.file 22 "/usr/include/c++/9/cstdio"
	.file 23 "/usr/include/c++/9/bits/alloc_traits.h"
	.file 24 "/usr/include/c++/9/initializer_list"
	.file 25 "/usr/include/c++/9/bits/stringfwd.h"
	.file 26 "/usr/include/c++/9/chrono"
	.file 27 "/usr/include/c++/9/system_error"
	.file 28 "/usr/include/c++/9/bits/ios_base.h"
	.file 29 "/usr/include/c++/9/cwctype"
	.file 30 "/usr/include/c++/9/iosfwd"
	.file 31 "/usr/include/c++/9/bits/std_abs.h"
	.file 32 "/usr/include/c++/9/ctime"
	.file 33 "/usr/include/c++/9/ratio"
	.file 34 "/usr/include/c++/9/bits/stl_iterator_base_funcs.h"
	.file 35 "/usr/include/c++/9/bits/move.h"
	.file 36 "/usr/include/c++/9/bits/predefined_ops.h"
	.file 37 "/usr/include/c++/9/ext/new_allocator.h"
	.file 38 "/usr/include/c++/9/ext/numeric_traits.h"
	.file 39 "/usr/include/c++/9/ext/alloc_traits.h"
	.file 40 "/usr/include/c++/9/bits/stl_iterator.h"
	.file 41 "/usr/include/c++/9/ext/type_traits.h"
	.file 42 "/usr/lib/gcc/x86_64-linux-gnu/9/include/stddef.h"
	.file 43 "<built-in>"
	.file 44 "/usr/include/x86_64-linux-gnu/bits/types/wint_t.h"
	.file 45 "/usr/include/x86_64-linux-gnu/bits/types/__mbstate_t.h"
	.file 46 "/usr/include/x86_64-linux-gnu/bits/types/mbstate_t.h"
	.file 47 "/usr/include/x86_64-linux-gnu/bits/types/__FILE.h"
	.file 48 "/usr/include/x86_64-linux-gnu/bits/types/struct_FILE.h"
	.file 49 "/usr/include/x86_64-linux-gnu/bits/types/FILE.h"
	.file 50 "/usr/include/wchar.h"
	.file 51 "/usr/include/x86_64-linux-gnu/bits/types/struct_tm.h"
	.file 52 "/usr/include/x86_64-linux-gnu/bits/types.h"
	.file 53 "/usr/include/x86_64-linux-gnu/bits/stdint-intn.h"
	.file 54 "/usr/include/x86_64-linux-gnu/bits/stdint-uintn.h"
	.file 55 "/usr/include/stdint.h"
	.file 56 "/usr/include/locale.h"
	.file 57 "/usr/include/x86_64-linux-gnu/bits/types/time_t.h"
	.file 58 "/usr/include/x86_64-linux-gnu/bits/types/clock_t.h"
	.file 59 "/usr/include/time.h"
	.file 60 "/usr/include/x86_64-linux-gnu/c++/9/bits/atomic_word.h"
	.file 61 "/usr/include/stdlib.h"
	.file 62 "/usr/include/x86_64-linux-gnu/bits/types/__fpos_t.h"
	.file 63 "/usr/include/stdio.h"
	.file 64 "/usr/include/x86_64-linux-gnu/bits/sys_errlist.h"
	.file 65 "/usr/include/errno.h"
	.file 66 "/usr/include/x86_64-linux-gnu/bits/wctype-wchar.h"
	.file 67 "/usr/include/wctype.h"
	.file 68 "/usr/include/c++/9/stdlib.h"
	.section	.data.rel.local.DW.ref.__gxx_personality_v0,"awG",@progbits,DW.ref.__gxx_personality_v0,comdat
	.align 8
	.type	DW.ref.__gxx_personality_v0, @object
	.size	DW.ref.__gxx_personality_v0, 8
DW.ref.__gxx_personality_v0:
	.quad	__gxx_personality_v0
	.hidden	__dso_handle
	.ident	"GCC: (Ubuntu 9.4.0-1ubuntu1~20.04) 9.4.0"
	.section	.note.GNU-stack,"",@progbits
	.section	.note.gnu.property,"a"
	.align 8
	.long	 1f - 0f
	.long	 4f - 1f
	.long	 5
0:
	.string	 "GNU"
1:
	.align 8
	.long	 0xc0000002
	.long	 3f - 2f
2:
	.long	 0x3
3:
	.align 8
4:
